(lp0
(dp1
S'vec'
p2
(lp3
F0.067358642816544
aF0.17838881909847
aF-0.027634566649795
aF0.084374375641346
aF-0.030279928818345
aF0.139175593853
aF0.022125588729978
aF0.055818997323513
aF-0.12623256444931
aF0.14636652171612
aF0.13639695942402
aF0.051860399544239
aF0.052626229822636
aF-0.1853756159544
aF0.028307968750596
aF-0.02460048161447
aF-0.010961715131998
aF0.073734417557716
aF-0.017068842425942
aF0.045369811356068
aF0.013256404548883
aF-0.038626424968243
aF0.024366663768888
aF0.052633266896009
aF0.045246124267578
aF-0.1470539867878
aF0.021430194377899
aF-0.048969220370054
aF-0.033977895975113
aF0.095622375607491
aF-0.088638953864574
aF-0.082350477576256
aF0.0061951796524227
aF0.10029207915068
aF-0.051511403173208
aF-0.077692620456219
aF-0.019909592345357
aF-0.13094414770603
aF-0.057073287665844
aF0.050633314996958
aF-0.02930735424161
aF-0.16424982249737
aF0.048573803156614
aF0.10272504389286
aF-0.12705887854099
aF-0.076977409422398
aF0.11517987400293
aF-0.01819015853107
aF-0.12187371402979
aF0.16991254687309
aF0.28407093882561
aF0.029508665204048
aF-0.21830070018768
aF0.0045777703635395
aF0.00073812284972519
aF0.011274102143943
aF-0.073105841875076
aF-0.10173826664686
aF0.07221919298172
aF0.040119890123606
aF-0.039337433874607
aF-0.12082155048847
aF-0.0014041238464415
aF-0.1374519020319
aF0.086074016988277
aF-0.16548499464989
aF-0.030230620875955
aF-0.095251068472862
aF-0.14807671308517
aF0.078682862222195
aF-0.011317287571728
aF0.095311060547829
aF-0.017208054661751
aF-0.00029378387262113
aF-0.038910862058401
aF-0.0043174410238862
aF0.070140868425369
aF0.11040678620338
aF-0.016719242557883
aF0.095239348709583
aF-0.064667873084545
aF-0.17227706313133
aF0.048871662467718
aF0.072114832699299
aF-0.034889400005341
aF0.0682128444314
aF-0.0037461791653186
aF-0.13052302598953
aF0.086337953805923
aF0.07995267957449
aF-0.15235444903374
aF-0.13396869599819
aF-0.11600085347891
aF0.016414534300566
aF-0.10329163819551
aF-0.091903306543827
aF-0.011093286797404
aF-0.022391282021999
aF-0.034714873880148
aF-0.023059025406837
aF-0.0083926720544696
aF0.15316988527775
aF0.041046421974897
aF0.046904984861612
aF0.029843982309103
aF0.0081102112308145
aF-0.00018208163965028
aF0.15257553756237
aF-0.048150718212128
aF-0.0069300783798099
aF-0.049496207386255
aF0.014478691853583
aF0.027750728651881
aF0.0098716448992491
aF-0.034294459968805
aF-0.077111810445786
aF0.080223433673382
aF0.038644175976515
aF0.044592794030905
aF0.12390476465225
aF0.002881504362449
aF-0.051013313233852
aF-0.018772222101688
aF0.089531302452087
aF0.17994977533817
aF-0.032649643719196
aF0.14523465931416
aF0.024744616821408
asS'imgpath'
p4
S'/static/dataset/raw/Xiuying_Wang/4.jpg'
p5
sa(dp6
g2
(lp7
F0.054033480584621
aF0.23640903830528
aF0.049009714275599
aF0.0040272804908454
aF-0.014974059537053
aF0.14578683674335
aF0.026264669373631
aF0.10453931987286
aF-0.01570700109005
aF0.022911375388503
aF0.011552470736206
aF0.003790601156652
aF-0.040224190801382
aF-0.12093116343021
aF0.021037025377154
aF-0.077943474054337
aF-0.062564894556999
aF-0.14028792083263
aF0.0087543660774827
aF-0.0079964445903897
aF0.039448171854019
aF0.069070070981979
aF0.021132601425052
aF-0.0084857549518347
aF0.039572700858116
aF-0.097092509269714
aF0.028541289269924
aF0.020013412460685
aF0.090128123760223
aF0.063295468688011
aF-0.038687068969011
aF-0.14815540611744
aF0.011197128333151
aF0.059319104999304
aF-0.02784482948482
aF-0.072990268468857
aF0.061403196305037
aF0.031210107728839
aF-0.051351718604565
aF0.062265422195196
aF-0.025148300454021
aF-0.070830531418324
aF-0.0035616224631667
aF0.0043129497207701
aF-0.089291952550411
aF0.040603965520859
aF0.07744574546814
aF-0.064033150672913
aF-0.063651062548161
aF0.16449195146561
aF0.14229063689709
aF0.2805889248848
aF-0.11484491825104
aF0.066729635000229
aF0.12186342477798
aF-0.032147981226444
aF0.038083631545305
aF-0.083273217082024
aF-0.032802831381559
aF-0.098510406911373
aF-0.065518654882908
aF-0.12428267300129
aF0.043051425367594
aF-0.11496706306934
aF0.016273360699415
aF-0.14358155429363
aF0.06483056396246
aF-0.015463569201529
aF-0.049289915710688
aF0.17449489235878
aF0.026560125872493
aF0.10247445851564
aF-0.072638958692551
aF0.074374586343765
aF0.073175959289074
aF0.049708571285009
aF0.0085776671767235
aF0.095441468060017
aF0.037903722375631
aF0.13239233195782
aF-0.049492049962282
aF-0.026854675263166
aF0.16657643020153
aF0.14593143761158
aF0.15582498908043
aF-0.085263721644878
aF0.0023851834703237
aF0.048035457730293
aF0.12373170256615
aF0.08816085010767
aF-0.059860028326511
aF-0.11657893657684
aF-0.08645548671484
aF0.067505322396755
aF-0.074434794485569
aF-0.19769331812859
aF0.12460988014936
aF0.024062069132924
aF0.011358388699591
aF-0.049828380346298
aF0.0053933230228722
aF0.1802346855402
aF0.013527101837099
aF0.039662800729275
aF-0.15519563853741
aF0.016141161322594
aF-0.0018508955836296
aF0.077022016048431
aF0.054659746587276
aF-0.035638999193907
aF0.081321552395821
aF0.047883205115795
aF-0.098032467067242
aF0.046829406172037
aF0.060768537223339
aF0.012178506702185
aF0.055288918316364
aF-0.056611489504576
aF0.036166973412037
aF0.12731184065342
aF0.047419372946024
aF0.052472706884146
aF0.058726154267788
aF0.011539403349161
aF0.13284611701965
aF0.0076047438196838
aF0.26981902122498
aF0.074250563979149
asg4
S'/static/dataset/raw/Xiuying_Wang/1.jpg'
p8
sa(dp9
g2
(lp10
F-0.0015836850507185
aF0.2073470056057
aF-0.004337222315371
aF-0.023236813023686
aF-0.029736714437604
aF0.15575183928013
aF0.04230921715498
aF0.085053712129593
aF-0.091256074607372
aF0.069837972521782
aF-0.034477159380913
aF0.041336514055729
aF0.019535342231393
aF-0.23951832950115
aF-0.11102446913719
aF-0.12764070928097
aF-0.12518191337585
aF0.036500561982393
aF-0.0011724450159818
aF-0.0061269188299775
aF0.10267656296492
aF-0.056078616529703
aF0.011126581579447
aF0.01064130757004
aF-0.0010545769473538
aF-0.10068891197443
aF-0.061260540038347
aF-0.086119756102562
aF0.047746323049068
aF0.095754466950893
aF-0.02250899374485
aF-0.21417033672333
aF-0.059247028082609
aF-0.026905760169029
aF0.068953916430473
aF-0.1688314974308
aF-0.063841484487057
aF-0.013428906910121
aF-0.0097327176481485
aF0.0057699088938534
aF-0.070801630616188
aF-0.076489023864269
aF0.0015303608961403
aF0.15260845422745
aF-0.094513438642025
aF-0.1044389680028
aF0.11112400889397
aF-0.03383944183588
aF-0.11416402459145
aF0.13477349281311
aF0.14316342771053
aF0.1136112511158
aF-0.089041218161583
aF0.012861110270023
aF0.0047144708223641
aF-0.013699907809496
aF0.038224399089813
aF-0.010367779992521
aF0.0036716677714139
aF-0.16101279854774
aF0.011935938149691
aF-0.039557993412018
aF0.12522341310978
aF-0.059290520846844
aF0.047332253307104
aF-0.22264131903648
aF0.027952762320638
aF-0.11200615763664
aF-0.10961821675301
aF0.050622519105673
aF0.039330650120974
aF0.090201519429684
aF-0.015944140031934
aF0.031118450686336
aF-0.082616865634918
aF0.023563588038087
aF-0.052884269505739
aF0.026140691712499
aF0.10295202583075
aF0.16182075440884
aF-0.12874826788902
aF-0.078362368047237
aF0.11929807066917
aF0.1647896617651
aF0.046643566340208
aF-0.078870214521885
aF0.01640953682363
aF0.0076896566897631
aF0.19454270601273
aF-0.016628842800856
aF-0.11525386571884
aF-0.097602419555187
aF-0.015553373843431
aF-0.0034969176631421
aF-0.058173157274723
aF-0.22424605488777
aF0.082068048417568
aF0.10321000218391
aF-0.11435562372208
aF-0.0071487920358777
aF0.029944222420454
aF0.2027623206377
aF-0.0073633673600852
aF0.052339386194944
aF-0.046731408685446
aF0.0064380494877696
aF0.055700950324535
aF0.12911097705364
aF0.022449355572462
aF0.04271550104022
aF0.069093644618988
aF-0.022002371028066
aF-0.074094615876675
aF0.042395114898682
aF-0.02386130951345
aF0.06133346259594
aF0.019302014261484
aF0.029926994815469
aF0.034577634185553
aF0.067311726510525
aF-0.056757070124149
aF-0.039250999689102
aF-0.044266927987337
aF-0.087484918534756
aF0.058300979435444
aF0.0031246873550117
aF0.098428010940552
aF0.045669879764318
asg4
S'/static/dataset/raw/Xiuying_Wang/41.jpg'
p11
sa(dp12
g2
(lp13
F0.020093904808164
aF0.19661413133144
aF0.017161915078759
aF0.034842055290937
aF0.010539525188506
aF0.23021237552166
aF-0.019497076049447
aF0.069870583713055
aF-0.036558568477631
aF0.080416887998581
aF0.085679329931736
aF0.05566244572401
aF0.00117932993453
aF-0.17515367269516
aF-0.0018368222517893
aF-0.034104343503714
aF-0.063537940382957
aF0.064936354756355
aF-0.072071574628353
aF-0.056857317686081
aF0.061334233731031
aF0.040093515068293
aF0.063552968204021
aF0.0033859293907881
aF0.032893527299166
aF-0.16197367012501
aF-0.021160280331969
aF-0.057706657797098
aF-0.022778986021876
aF0.034879639744759
aF0.018858714029193
aF-0.14251230657101
aF-0.041583366692066
aF0.03720223531127
aF-0.033054120838642
aF-0.04250118508935
aF-0.068645685911179
aF-0.11233184486628
aF-0.055952835828066
aF0.17024348676205
aF-0.020731763914227
aF-0.02650747820735
aF-0.064272858202457
aF0.076888650655746
aF-0.12351325899363
aF-0.10878089815378
aF0.076339595019817
aF-0.069839254021645
aF-0.061574410647154
aF0.15633162856102
aF0.25128272175789
aF0.10093626379967
aF-0.22391591966152
aF0.00088268460240215
aF-0.069561250507832
aF0.010336280800402
aF0.025597926229239
aF-0.050542034208775
aF0.039392154663801
aF0.0056306095793843
aF-0.065311715006828
aF-0.072007089853287
aF0.024724228307605
aF-0.1508381664753
aF0.082125723361969
aF-0.26203733682632
aF0.040109314024448
aF0.0035567271988839
aF-0.082768104970455
aF0.23770262300968
aF0.10741931200027
aF0.18153001368046
aF0.022896790876985
aF-0.0044984300620854
aF-0.064748540520668
aF0.034991901367903
aF-0.069459736347198
aF0.076267309486866
aF-0.070097714662552
aF0.070517003536224
aF-0.082959927618504
aF-0.035633198916912
aF0.12874212861061
aF0.14920355379581
aF-0.0417600274086
aF0.036542266607285
aF0.068292729556561
aF-0.07235199213028
aF0.027244210243225
aF-0.0068041142076254
aF-0.17623761296272
aF-0.12981021404266
aF-0.096093162894249
aF0.0095376148819923
aF-0.036436296999454
aF-0.14414808154106
aF-0.00419214181602
aF-0.0055722952820361
aF-0.12707971036434
aF0.066226333379745
aF-0.02923621982336
aF0.13065434992313
aF-0.0045718629844487
aF0.042836483567953
aF0.022491680458188
aF-0.006317401304841
aF-0.027127932757139
aF0.055806864053011
aF-0.044071208685637
aF0.01146818511188
aF-0.025250421836972
aF-0.0029634959064424
aF0.015420063398778
aF0.051843505352736
aF-0.0066683669574559
aF-0.0043643764220178
aF0.013724616728723
aF0.033706426620483
aF0.029201418161392
aF0.11359044164419
aF0.014886340126395
aF-0.0069056306965649
aF-0.023544065654278
aF0.013765851967037
aF0.17303687334061
aF-0.017649738118052
aF0.1158709153533
aF0.10483723133802
asg4
S'/static/dataset/raw/Xiuying_Wang/unnamed.jpg'
p14
sa(dp15
g2
(lp16
F0.07502868026495
aF0.045530773699284
aF-0.0032948448788375
aF0.056434232741594
aF0.043112311512232
aF0.12357840687037
aF-0.035762809216976
aF0.099942907691002
aF0.11322080343962
aF0.014138422906399
aF0.15198032557964
aF0.088331833481789
aF0.021954666823149
aF-0.17178365588188
aF-0.033617559820414
aF-0.0077938525937498
aF0.014487429521978
aF0.11875672638416
aF-0.16014562547207
aF0.081032834947109
aF0.084924302995205
aF0.052423484623432
aF0.064524166285992
aF0.032804060727358
aF-0.057258389890194
aF-0.17635723948479
aF-0.01183095574379
aF-0.037585616111755
aF-0.090308524668217
aF0.0067360009998083
aF0.01639043353498
aF-0.098235823214054
aF0.055154535919428
aF0.10891634970903
aF-0.024751447141171
aF0.0069353133440018
aF-0.0042940936982632
aF-0.060077015310526
aF-0.097898282110691
aF0.072401538491249
aF-0.038986649364233
aF0.0073821181431413
aF-0.087402746081352
aF0.032637856900692
aF-0.092924691736698
aF-0.20518788695335
aF-0.042552962899208
aF-0.011483009904623
aF0.037266205996275
aF0.2437618970871
aF0.13445748388767
aF0.0092298742383718
aF-0.22689440846443
aF0.024126466363668
aF-0.056531932204962
aF-0.017817744985223
aF-0.053093876689672
aF-0.14272178709507
aF-0.054780267179012
aF0.056159690022469
aF-0.07300665974617
aF-0.12492974102497
aF0.010427877306938
aF-0.14183530211449
aF0.028392363339663
aF-0.27196285128593
aF0.0074293529614806
aF0.0086904224008322
aF-0.090623565018177
aF0.158995449543
aF0.090822324156761
aF0.055162467062473
aF0.021373590454459
aF-0.024106031283736
aF-0.14328649640083
aF-0.015731768682599
aF0.022630605846643
aF0.074427582323551
aF-0.077360011637211
aF0.021460754796863
aF-0.070209838449955
aF-0.026780342683196
aF0.046467166393995
aF0.092481270432472
aF0.012678285129368
aF0.078215770423412
aF0.032628241926432
aF-0.029622029513121
aF0.069333031773567
aF0.051864303648472
aF-0.080417349934578
aF-0.15136525034904
aF-0.11730059236288
aF0.05330266430974
aF0.018055021762848
aF-0.089169844985008
aF-0.10174624621868
aF-0.086060598492622
aF-0.18056610226631
aF0.059074182063341
aF0.023640086874366
aF0.039572384208441
aF-0.053183320909739
aF-0.038845077157021
aF0.1355347186327
aF0.0033966775517911
aF0.040818266570568
aF-0.057847205549479
aF-0.0087476707994938
aF0.053890056908131
aF-0.11911162734032
aF-0.019124506041408
aF0.057352621108294
aF0.10238885879517
aF0.009099698625505
aF-0.039691768586636
aF0.089236907660961
aF0.011468099430203
aF0.0071776728145778
aF0.108602181077
aF-0.0049898526631296
aF0.062185995280743
aF-0.0019839850720018
aF0.12066987901926
aF0.18446320295334
aF-0.08455653488636
aF0.16360963881016
aF0.066662579774857
asg4
S'/static/dataset/raw/Hui_Cui/2.jpg'
p17
sa(dp18
g2
(lp19
F0.080942459404469
aF-0.093006104230881
aF0.027060829102993
aF0.048519156873226
aF0.012347420677543
aF0.079100601375103
aF-0.024694295600057
aF0.1116810888052
aF0.10897992551327
aF-0.11318730562925
aF0.036269247531891
aF0.15975169837475
aF-0.040445193648338
aF-0.26439461112022
aF-0.099459432065487
aF-0.011361961252987
aF-0.1679182946682
aF-0.039934895932674
aF-0.1365239918232
aF0.10658812522888
aF0.099237009882927
aF0.154994815588
aF0.03106171451509
aF0.036368448287249
aF-0.10192730277777
aF0.026733234524727
aF0.049667440354824
aF-0.13857723772526
aF-0.085383884608746
aF0.016399227082729
aF-0.052398432046175
aF-0.047123312950134
aF0.036709573119879
aF0.11606250703335
aF-0.0093662738800049
aF-0.066228583455086
aF-0.035370927304029
aF0.015640534460545
aF-0.11163290590048
aF0.032240584492683
aF0.021218672394753
aF-0.050784278661013
aF-0.10785327106714
aF0.11760550737381
aF-0.076127640902996
aF-0.1413284689188
aF-0.0032722677569836
aF-0.052965641021729
aF0.049057014286518
aF0.23192818462849
aF0.11502262204885
aF0.026976468041539
aF-0.077647499740124
aF0.05936723574996
aF0.10747790336609
aF-0.082178227603436
aF-0.0034259236417711
aF-0.12448757141829
aF-0.090129114687443
aF-0.020410584285855
aF-0.031007561832666
aF-0.16646888852119
aF0.05477112904191
aF0.062280505895615
aF-0.017923545092344
aF-0.30579468607903
aF0.024765409529209
aF-0.029352864250541
aF0.035091124475002
aF0.080030009150505
aF-0.01320210378617
aF-0.019177658483386
aF0.019179098308086
aF0.033973608165979
aF-0.0843790397048
aF-0.03400007635355
aF-0.044564329087734
aF-0.00073829898610711
aF-0.044718705117702
aF0.1976301074028
aF0.064678475260735
aF-0.017703030258417
aF0.082497656345367
aF0.049824126064777
aF0.081058375537395
aF-0.058861091732979
aF0.10755167901516
aF0.063122890889645
aF0.028727682307363
aF0.06628081202507
aF-0.014809125103056
aF-0.06926741451025
aF-0.19968385994434
aF0.099275469779968
aF-0.11173783242702
aF-0.010199627839029
aF-0.0031571662984788
aF-0.10255628079176
aF-0.037872217595577
aF-0.022925237193704
aF0.068446718156338
aF0.052197020500898
aF-0.049146346747875
aF-0.049631003290415
aF0.037895984947681
aF-0.10342182219028
aF0.0036334239412099
aF0.015002709813416
aF-0.02123467810452
aF0.038026198744774
aF0.022521419450641
aF0.062009245157242
aF-0.071695387363434
aF-0.00038787844823673
aF0.038258049637079
aF0.041835725307465
aF0.067786775529385
aF-0.04964217543602
aF-0.0063169621862471
aF0.071818076074123
aF0.049157246947289
aF0.11690355837345
aF0.082987137138844
aF-0.009089351631701
aF0.14566959440708
aF-0.048398360610008
aF0.23624162375927
aF0.064951166510582
asg4
S'/static/dataset/raw/Hui_Cui/unnamed.jpg'
p20
sa(dp21
g2
(lp22
F0.091540515422821
aF0.0078697223216295
aF0.072941370308399
aF0.029019443318248
aF0.061278697103262
aF0.099648907780647
aF0.08075775206089
aF0.16632181406021
aF0.011715461499989
aF0.052041988819838
aF0.057180140167475
aF0.085239708423615
aF0.070227935910225
aF-0.18976993858814
aF0.013713452965021
aF0.070775486528873
aF-0.022747918963432
aF-0.035949882119894
aF-0.1866542249918
aF0.15463449060917
aF0.12643040716648
aF-0.052536308765411
aF0.0078104520216584
aF0.020109687000513
aF-0.078397579491138
aF-0.064231276512146
aF-0.13519009947777
aF-0.071416065096855
aF0.010213044472039
aF-0.0047418344765902
aF-0.0051522706635296
aF0.08309829980135
aF-0.010553881525993
aF0.16640013456345
aF-0.056807201355696
aF-0.025799000635743
aF0.0091825406998396
aF0.094730623066425
aF-0.042678184807301
aF-0.042451988905668
aF-0.015276739373803
aF-0.077986434102058
aF-0.0014787531690672
aF-0.065374076366425
aF0.018478577956557
aF-0.15015257894993
aF0.0022910491097718
aF-0.0048863147385418
aF-0.071497313678265
aF0.17697839438915
aF0.083156779408455
aF-0.035705350339413
aF-0.20780056715012
aF0.032446354627609
aF0.095180362462997
aF-0.03352764248848
aF-0.10586263984442
aF-0.052982151508331
aF-0.10852301865816
aF0.024184569716454
aF-0.045404467731714
aF-0.11056565493345
aF0.021148562431335
aF-0.15368790924549
aF0.093003526329994
aF-0.098892048001289
aF-0.063516981899738
aF0.0094109196215868
aF-0.15550194680691
aF0.030217967927456
aF-0.013292829506099
aF0.069970183074474
aF-0.070045307278633
aF0.094983741641045
aF-0.084354259073734
aF-0.021406741812825
aF0.1563835144043
aF0.079674415290356
aF0.047063320875168
aF0.047096747905016
aF-0.039118058979511
aF-0.12194124609232
aF0.030152359977365
aF0.032929580658674
aF0.023259336128831
aF-0.03543770685792
aF0.055773973464966
aF0.076366640627384
aF0.16236704587936
aF0.10645956546068
aF0.018733898177743
aF-0.1375080794096
aF-0.1429338902235
aF0.14463108778
aF-0.031005872413516
aF0.056297849863768
aF0.014192062430084
aF-0.07751202583313
aF-0.11044485867023
aF0.075807169079781
aF0.02133452706039
aF-0.005156063940376
aF-0.15857763588428
aF0.046262133866549
aF0.038309257477522
aF0.057665329426527
aF-0.016188057139516
aF0.0067689516581595
aF0.095746956765652
aF-0.066518500447273
aF-0.14972732961178
aF0.10987348854542
aF-0.060566559433937
aF0.053320378065109
aF0.17015920579433
aF-0.015412050299346
aF0.087738364934921
aF0.017825083807111
aF-0.010846486315131
aF0.17483727633953
aF-0.012066018767655
aF0.10226811468601
aF0.10683865845203
aF0.13786551356316
aF0.13292613625526
aF-0.028931520879269
aF0.1770474165678
aF-0.06676185131073
asg4
S'/static/dataset/raw/Hui_Cui/21.jpg'
p23
sa(dp24
g2
(lp25
F0.0067045744508505
aF0.24570186436176
aF0.21385210752487
aF0.16970147192478
aF-0.036884199827909
aF0.13550351560116
aF0.0069854110479355
aF-0.043606363236904
aF0.033439006656408
aF-0.038188382983208
aF0.061092026531696
aF-0.044887073338032
aF-0.092812247574329
aF-0.086999766528606
aF0.095989443361759
aF-0.043231830000877
aF-0.003159143961966
aF0.062267277389765
aF-0.058656789362431
aF-0.12651704251766
aF0.059784330427647
aF-0.0082275457680225
aF-0.010344396345317
aF0.052305832505226
aF0.22463494539261
aF-0.24728345870972
aF-0.080156527459621
aF0.074480280280113
aF0.011096169240773
aF0.029168033972383
aF0.13922840356827
aF-0.046551950275898
aF-0.035562597215176
aF0.076645359396935
aF0.042928159236908
aF-0.064405277371407
aF0.034921858459711
aF-0.065427608788013
aF0.06401452422142
aF0.020163705572486
aF0.059724204242229
aF-0.043580073863268
aF0.083608001470566
aF-0.11592335253954
aF0.004280389752239
aF-0.14687751233578
aF0.019387684762478
aF-0.11070069670677
aF-0.064022623002529
aF0.014912222512066
aF0.15139736235142
aF0.095715828239918
aF-0.027104809880257
aF0.0092293778434396
aF-0.049155000597239
aF0.032524652779102
aF-0.040803465992212
aF-0.049094062298536
aF-0.019914070144296
aF-0.061749778687954
aF-0.082987137138844
aF-0.027327051386237
aF-0.085704229772091
aF-0.22125735878944
aF0.073630057275295
aF0.11258210241795
aF0.067326098680496
aF-0.13328546285629
aF-0.23298045992851
aF0.15874031186104
aF0.039652042090893
aF0.11152809113264
aF-0.021885897964239
aF0.030650621280074
aF0.045187257230282
aF-0.035095326602459
aF0.054517477750778
aF-0.044644519686699
aF-0.042801715433598
aF0.07488102465868
aF-0.10095663368702
aF-0.0084661534056067
aF0.12017447501421
aF0.039090350270271
aF0.050666198134422
aF0.022552136331797
aF-0.069110363721848
aF-0.079075932502747
aF-0.050788886845112
aF0.047560792416334
aF-0.061532396823168
aF-0.14445441961288
aF0.016942117363214
aF0.0055375262163579
aF-0.025620229542255
aF-0.082708202302456
aF-0.029271746054292
aF0.0042952853254974
aF-0.040211331099272
aF0.073099620640278
aF-0.065556362271309
aF0.039456877857447
aF-0.015033344738185
aF0.10685950517654
aF0.060307361185551
aF0.075263366103172
aF0.11604849249125
aF0.036627490073442
aF0.023860340937972
aF-0.056823004037142
aF-0.089306682348251
aF-0.027600226923823
aF-0.025523593649268
aF0.071755103766918
aF0.068559408187866
aF-0.10310390591621
aF-0.010186949744821
aF0.11615234613419
aF0.083811536431313
aF0.076301649212837
aF0.050799939781427
aF0.031510028988123
aF-0.068363860249519
aF0.0071701598353684
aF0.23943530023098
aF0.013307612389326
aF0.17770473659039
aF0.011508891358972
asg4
S'/static/dataset/raw/Zhenghao_Chen/image-5.jpg'
p26
sa(dp27
g2
(lp28
F-0.037268571555614
aF0.31817889213562
aF0.11078377813101
aF0.11312714219093
aF-0.037047848105431
aF0.17664521932602
aF0.024604281410575
aF-0.018140191212296
aF-0.018345799297094
aF0.10456131398678
aF0.088033698499203
aF-0.064357258379459
aF-0.0078078359365463
aF-0.20390839874744
aF0.067719146609306
aF0.025249537080526
aF-0.077728852629662
aF0.08196896314621
aF-0.098283603787422
aF-0.079653032124043
aF0.073798954486847
aF-0.090133562684059
aF-0.041336257010698
aF0.020627465099096
aF0.15120460093021
aF-0.20302896201611
aF-0.16039061546326
aF-0.0070901531726122
aF0.071868814527988
aF0.053627725690603
aF0.12402381747961
aF0.017843259498477
aF-0.093226030468941
aF0.065534561872482
aF0.021275019273162
aF-0.041227720677853
aF0.00029461161466315
aF-0.099999472498894
aF0.11127535998821
aF0.045207802206278
aF0.038412153720856
aF-0.14808185398579
aF0.08691942691803
aF-0.048650242388248
aF0.026027411222458
aF-0.14634644985199
aF0.10088861733675
aF-0.032912135124207
aF-0.14328417181969
aF0.0025881370529532
aF0.14324696362019
aF0.077591143548489
aF-0.12448356300592
aF-0.024472655728459
aF-0.079132728278637
aF0.054538391530514
aF-0.054261185228825
aF-0.070230759680271
aF0.0079244421795011
aF-0.057158712297678
aF-0.095205068588257
aF-0.022094558924437
aF-0.020297560840845
aF-0.20858204364777
aF0.05848416686058
aF0.061554975807667
aF0.043196845799685
aF-0.13008488714695
aF-0.20070581138134
aF0.071615688502789
aF0.014183409512043
aF0.15398453176022
aF-0.037275172770023
aF0.061982270330191
aF0.040440335869789
aF-0.063678547739983
aF0.032932475209236
aF0.051691230386496
aF-0.023460682481527
aF0.088798873126507
aF-0.066756911575794
aF-0.039343670010567
aF0.073859252035618
aF0.089402034878731
aF-0.027596006169915
aF0.11443862318993
aF-0.046508647501469
aF-0.087655484676361
aF0.041668299585581
aF0.020605431869626
aF-0.081669598817825
aF-0.13108898699284
aF-0.027876768261194
aF0.0098929973319173
aF-0.062466081231833
aF-0.08326330780983
aF-0.040035616606474
aF0.034865766763687
aF-0.082640767097473
aF0.058984279632568
aF-0.049245677888393
aF0.023626245558262
aF-0.041416622698307
aF0.13098272681236
aF0.07707279920578
aF0.11838379502296
aF0.071934938430786
aF0.13586114346981
aF0.043764214962721
aF-0.0029554998036474
aF-0.12874391674995
aF-0.0043243821710348
aF-0.058445699512959
aF0.043686099350452
aF0.048724595457315
aF-0.08977547287941
aF-0.018574692308903
aF0.10434756428003
aF0.083743825554848
aF0.078573927283287
aF0.044489875435829
aF-0.012470043264329
aF-0.021995773538947
aF0.057371869683266
aF0.13108679652214
aF0.013574607670307
aF0.086270779371262
aF0.0078644808381796
asg4
S'/static/dataset/raw/Zhenghao_Chen/image-7.jpg'
p29
sa(dp30
g2
(lp31
F-0.042233075946569
aF0.1510828435421
aF0.14906120300293
aF0.11924562603235
aF-0.078808501362801
aF0.2183563709259
aF-0.092421621084213
aF0.039591334760189
aF0.00080010772217065
aF0.016794245690107
aF0.067877441644669
aF-0.071031011641026
aF-0.031189948320389
aF-0.18637420237064
aF0.097647905349731
aF-0.014300943352282
aF-0.12588146328926
aF0.052014783024788
aF0.0038604966830462
aF-0.10630021989346
aF0.15200588107109
aF-0.051228322088718
aF0.041044782847166
aF0.017346326261759
aF0.15962386131287
aF-0.14830718934536
aF-0.09262315928936
aF-0.13463972508907
aF-0.035341784358025
aF-0.010118338279426
aF0.15450815856457
aF-0.10176223516464
aF-0.0088489102199674
aF0.051507316529751
aF0.091027230024338
aF0.0030016205273569
aF0.019770735874772
aF-0.087700046598911
aF0.07327114790678
aF-0.0068239187821746
aF0.041048608720303
aF-0.13884046673775
aF0.0086745219305158
aF-0.031910456717014
aF-0.026879753917456
aF-0.17894665896893
aF0.094821251928806
aF-0.08371389657259
aF-0.084222309291363
aF0.011878050863743
aF0.12261636555195
aF0.035615608096123
aF0.0034840365406126
aF0.055657055228949
aF-0.01599345728755
aF0.048552110791206
aF0.081318199634552
aF-0.16910366714001
aF0.024492707103491
aF-0.16453920304775
aF-0.056247420608997
aF-0.040240224450827
aF-0.061506170779467
aF-0.16654987633228
aF0.079426795244217
aF0.019479531794786
aF0.077939242124557
aF-0.071751266717911
aF-0.054960291832685
aF0.12235148251057
aF-0.0057635428383946
aF0.10687193274498
aF-0.070251323282719
aF-0.086269415915012
aF0.051994163542986
aF-0.043847776949406
aF-0.080267392098904
aF0.04605895653367
aF-0.0050623775459826
aF0.18871729075909
aF-0.10803338140249
aF-0.018882067874074
aF0.12623673677444
aF0.085882179439068
aF-0.00022364786127582
aF0.11218032985926
aF0.01582301966846
aF-0.009934414178133
aF-0.0057945870794356
aF0.0032014197204262
aF-0.071270018815994
aF-0.086284399032593
aF-0.010107219219208
aF0.015200523659587
aF-0.1679602265358
aF-0.11944004893303
aF-0.047723650932312
aF0.096463344991207
aF-0.084519229829311
aF0.040893945842981
aF0.031417727470398
aF0.037036336958408
aF-0.024228174239397
aF0.00094652036204934
aF0.15589419007301
aF0.050187163054943
aF0.098584197461605
aF0.046752493828535
aF-0.020304314792156
aF0.0042637242004275
aF-0.16712662577629
aF-0.049485292285681
aF-0.034435540437698
aF-0.07448023557663
aF0.084265746176243
aF-0.00060908950399607
aF-0.046589720994234
aF0.023144362494349
aF0.028422333300114
aF0.057919859886169
aF0.07878540456295
aF-0.042805418372154
aF-0.0060438155196607
aF-0.016574997454882
aF0.16662187874317
aF0.038592576980591
aF0.20330408215523
aF0.1540137976408
asg4
S'/static/dataset/raw/Zhenghao_Chen/image-3.jpg'
p32
sa(dp33
g2
(lp34
F0.0083110621199012
aF0.26188144087791
aF0.15127465128899
aF0.12158793956041
aF-0.062380149960518
aF0.14090889692307
aF0.0073505314067006
aF0.020458353683352
aF0.056714098900557
aF0.067545600235462
aF0.13084773719311
aF-0.059855975210667
aF-0.004551743157208
aF-0.1236149892211
aF0.12038105726242
aF-0.026387257501483
aF-0.0016421705950052
aF0.04492661356926
aF-0.081260874867439
aF-0.11208724975586
aF0.077402882277966
aF-0.017802301794291
aF-0.030571779236197
aF0.063391424715519
aF0.19245195388794
aF-0.22011710703373
aF-0.056440591812134
aF0.034623946994543
aF0.039821092039347
aF0.067510508000851
aF0.12661102414131
aF-0.04573380574584
aF-0.011867186054587
aF0.10213002562523
aF0.011201610788703
aF-0.070344887673855
aF0.049040742218494
aF-0.034272223711014
aF0.083200141787529
aF0.047744512557983
aF0.027415441349149
aF-0.10447987169027
aF0.027952186763287
aF-0.071710020303726
aF0.0076677142642438
aF-0.17759154736996
aF0.00028113863663748
aF-0.058210551738739
aF-0.043267976492643
aF-0.00074413692345843
aF0.18008759617805
aF0.1312330365181
aF-0.085107751190662
aF-0.0034407542552799
aF-0.061238680034876
aF0.046443235129118
aF-0.060274545103312
aF-0.10295232385397
aF-0.020479883998632
aF-0.069211654365063
aF-0.10722343623638
aF-0.13163284957409
aF-0.078083261847496
aF-0.1969303637743
aF0.028391592204571
aF0.065010234713554
aF0.077908344566822
aF-0.065449208021164
aF-0.17823347449303
aF0.086382173001766
aF0.026003025472164
aF0.1020235568285
aF-0.072314158082008
aF-0.024613343179226
aF0.051456939429045
aF-0.04703514277935
aF0.042247720062733
aF0.0092830313369632
aF-0.032308425754309
aF0.15211457014084
aF-0.093800023198128
aF-0.059665981680155
aF0.14088751375675
aF0.06635158509016
aF0.049017280340195
aF0.038154926151037
aF-0.0097716096788645
aF-0.079371474683285
aF0.032986719161272
aF0.029303066432476
aF-0.12171930074692
aF-0.16493541002274
aF-0.003376213600859
aF0.05026588216424
aF-0.099560648202896
aF-0.1268929541111
aF-0.059667445719242
aF-0.04563269764185
aF-0.037457063794136
aF0.038985937833786
aF-0.016571575775743
aF0.055238239467144
aF-0.020720595493913
aF0.12055882811546
aF0.067126907408237
aF0.049761138856411
aF0.077471807599068
aF0.04887193441391
aF0.048564679920673
aF-0.059318531304598
aF-0.10748751461506
aF-0.0064697503112257
aF-0.081793367862701
aF0.069415219128132
aF0.072469979524612
aF-0.069965042173862
aF-0.034067008644342
aF0.092087648808956
aF0.062978900969028
aF0.091168537735939
aF0.057053048163652
aF0.015553202480078
aF-0.060942616313696
aF0.070739313960075
aF0.23891262710094
aF-0.0045176967978477
aF0.17062911391258
aF0.039115402847528
asg4
S'/static/dataset/raw/Zhenghao_Chen/image-2.jpg'
p35
sa(dp36
g2
(lp37
F0.085087925195694
aF0.23991712927818
aF0.15480637550354
aF0.082036674022675
aF-0.014447250403464
aF0.12132432311773
aF0.020848201587796
aF0.07403788715601
aF-0.078904986381531
aF0.039021566510201
aF0.093359112739563
aF-0.069480389356613
aF-0.033486548811197
aF-0.074619881808758
aF0.15892837941647
aF-0.045516557991505
aF0.040947686880827
aF-0.013156206347048
aF-0.027238190174103
aF-0.03924897685647
aF0.032248508185148
aF0.008412754163146
aF0.0075602158904076
aF0.0071534863673151
aF0.17506575584412
aF-0.17754250764847
aF0.001809409703128
aF0.08195399492979
aF0.05089284107089
aF0.0087906215339899
aF0.019003465771675
aF-0.069532722234726
aF0.0088556297123432
aF0.12133354693651
aF3.5507051507011e-05
aF-0.05348839238286
aF0.077121198177338
aF-0.023321578279138
aF0.025957047939301
aF-0.04545122012496
aF0.019076442345977
aF-0.10328935831785
aF0.087879881262779
aF-0.04499027505517
aF-0.069093197584152
aF-0.010410903021693
aF0.044973060488701
aF-0.05506419017911
aF-0.15343594551086
aF0.069630041718483
aF0.15378975868225
aF0.14822445809841
aF-0.12843535840511
aF0.026854000985622
aF0.028556440025568
aF-0.010262057185173
aF-0.094598315656185
aF-0.092473454773426
aF-0.01432862970978
aF-0.069011069834232
aF-0.076793350279331
aF-0.12098664045334
aF-0.050216503441334
aF-0.18224097788334
aF0.063858583569527
aF0.092648401856422
aF0.0044872923754156
aF-0.041029296815395
aF-0.16591101884842
aF0.14341540634632
aF0.0075716148130596
aF0.079551920294762
aF-0.05449179187417
aF-0.0066404263488948
aF0.062605127692223
aF-0.036818895488977
aF0.088183000683784
aF0.051374793052673
aF0.021689223125577
aF0.079534575343132
aF-0.081619314849377
aF-0.079286344349384
aF0.09001450240612
aF0.012140464968979
aF0.082995347678661
aF-0.022115448489785
aF-0.055519387125969
aF-0.029846465215087
aF0.068210579454899
aF0.152512550354
aF-0.0087211849167943
aF-0.14471964538097
aF-0.095745451748371
aF0.049381643533707
aF-0.074134938418865
aF-0.10627853870392
aF0.041609827429056
aF-0.0055814972147346
aF-0.011739300563931
aF-0.034647915512323
aF-0.066077157855034
aF0.10413137823343
aF0.013215512037277
aF0.05480582639575
aF-0.044825524091721
aF0.085511408746243
aF0.051782179623842
aF0.092560835182667
aF0.086574226617813
aF-0.12138973921537
aF-0.018775347620249
aF0.047589424997568
aF-0.067261539399624
aF0.073617175221443
aF0.12506228685379
aF-0.13406206667423
aF0.01347079128027
aF0.0035206936299801
aF0.083695240318775
aF0.10375970602036
aF0.055958680808544
aF0.023543613031507
aF0.018916403874755
aF0.11355797201395
aF0.27428331971169
aF-0.045768834650517
aF0.30025318264961
aF-0.026073900982738
asg4
S'/static/dataset/raw/Zhenghao_Chen/image-4.jpg'
p38
sa(dp39
g2
(lp40
F-0.0043627433478832
aF0.3044518828392
aF0.13579107820988
aF0.10019837319851
aF-0.052049361169338
aF0.13018500804901
aF-0.058252662420273
aF0.011091210879385
aF0.022441683337092
aF0.05493088811636
aF0.11307015269995
aF-0.10204344987869
aF-0.046542927622795
aF-0.1061984449625
aF0.089484311640263
aF-0.047210045158863
aF0.017336715012789
aF0.12538935244083
aF-0.066545270383358
aF-0.11612717807293
aF0.049719218164682
aF-0.0016862771008164
aF0.021314004436135
aF-0.015579625964165
aF0.18382559716702
aF-0.23698125779629
aF-0.035503011196852
aF0.086484372615814
aF0.027420232072473
aF0.015411637723446
aF0.10099019855261
aF-0.095836661756039
aF-0.007962342351675
aF0.066752932965755
aF0.037256393581629
aF-0.064600899815559
aF0.048582099378109
aF-0.063367284834385
aF0.064087070524693
aF0.051379948854446
aF-0.0062830080278218
aF-0.048673275858164
aF0.048441037535667
aF-0.031540848314762
aF-0.03082012757659
aF-0.16687418520451
aF0.036060899496078
aF-0.055981893092394
aF-0.067081972956657
aF0.053620480000973
aF0.17789040505886
aF0.13391228020191
aF-0.13219946622849
aF0.019195485860109
aF-0.12573003768921
aF0.013070670887828
aF-0.0084208054468036
aF-0.15341837704182
aF0.032402820885181
aF-0.10674431920052
aF-0.069976404309273
aF-0.084288217127323
aF-0.075949274003506
aF-0.16387937963009
aF0.010706439614296
aF0.023939814418554
aF0.082849986851215
aF-0.073174677789211
aF-0.13361184298992
aF0.16858695447445
aF0.052276816219091
aF0.093995146453381
aF0.01017586980015
aF-0.00076324742985889
aF0.001254788483493
aF-0.093534179031849
aF-0.0056348266080022
aF0.01890692487359
aF-0.061576370149851
aF0.039585001766682
aF-0.0976547524333
aF0.021389257162809
aF0.1032974049449
aF0.069140620529652
aF0.061351697891951
aF0.064843147993088
aF-0.074190676212311
aF-0.075080029666424
aF0.064818680286407
aF0.031313236802816
aF-0.10371866822243
aF-0.14012524485588
aF-0.017096841707826
aF-0.027703875675797
aF-0.016630975529552
aF-0.1585495620966
aF-0.062909066677094
aF0.038964029401541
aF-0.1112771704793
aF0.032464016228914
aF-0.0739601328969
aF0.072553187608719
aF0.03618286177516
aF0.091922432184219
aF0.079754881560802
aF0.050750158727169
aF0.089756645262241
aF0.047732021659613
aF0.052007783204317
aF-0.026028929278255
aF-0.081244267523289
aF-0.018311785534024
aF-0.036191690713167
aF0.11576896905899
aF0.021256275475025
aF-0.14004117250443
aF0.0037596798501909
aF0.041451994329691
aF0.093619823455811
aF0.0042460882104933
aF0.040272638201714
aF0.043796747922897
aF-0.037139214575291
aF0.060875728726387
aF0.23810602724552
aF-0.089795254170895
aF0.18283112347126
aF0.048737570643425
asg4
S'/static/dataset/raw/Zhenghao_Chen/image-8.jpg'
p41
sa(dp42
g2
(lp43
F0.01171397510916
aF0.22304104268551
aF0.17268818616867
aF0.043660223484039
aF-0.022110356017947
aF0.16118805110455
aF0.015937108546495
aF0.079279072582722
aF0.069114625453949
aF-0.001799346646294
aF0.12552797794342
aF-0.079874202609062
aF0.015039361082017
aF-0.12655210494995
aF0.090291686356068
aF-0.059311363846064
aF-0.011286935769022
aF0.14705319702625
aF-0.17947106063366
aF-0.1390690356493
aF0.17171142995358
aF0.033064089715481
aF-0.013251560740173
aF0.059870965778828
aF0.13611841201782
aF-0.23471896350384
aF-0.096527650952339
aF0.0075458129867911
aF0.063165679574013
aF0.022379478439689
aF0.15190795063972
aF-0.097227334976196
aF-0.028146427124739
aF0.09953024238348
aF0.056351818144321
aF-0.080172695219517
aF-0.0028611235320568
aF-0.024204248562455
aF0.02002271451056
aF0.052700243890285
aF0.044961176812649
aF-0.0078523503616452
aF-0.0059357122518122
aF0.066841766238213
aF-0.035896271467209
aF-0.21964171528816
aF-0.0087979780510068
aF-0.053749196231365
aF-0.068260185420513
aF0.0029039569199085
aF0.11472980678082
aF0.057679988443851
aF-0.13736580312252
aF-0.010968637652695
aF-0.12441500276327
aF0.049765769392252
aF-0.046987324953079
aF-0.047678153961897
aF0.0055112754926085
aF-0.12687262892723
aF-0.096380390226841
aF-0.095204189419746
aF-0.052490506321192
aF-0.10505270957947
aF-0.0062694265507162
aF-0.035347361117601
aF0.082216151058674
aF-0.064933948218822
aF-0.12118949741125
aF0.15205736458302
aF0.082763038575649
aF0.063840292394161
aF0.0055927131325006
aF-0.061745028942823
aF-0.038228292018175
aF-0.094476714730263
aF-0.076998829841614
aF0.013843422755599
aF-0.043592371046543
aF0.080972254276276
aF-0.094193354249001
aF0.031050743535161
aF0.11989753693342
aF0.053708229213953
aF0.035494539886713
aF0.048440281301737
aF0.042636584490538
aF-0.081613548099995
aF0.0030942475423217
aF0.019043100997806
aF-0.050283282995224
aF-0.17910081148148
aF-0.062028646469116
aF-0.06121514737606
aF-0.037365213036537
aF-0.1327963322401
aF-0.10494861006737
aF0.017401941120625
aF-0.1492668390274
aF0.082705087959766
aF-0.036365371197462
aF0.07044730335474
aF0.029269734397531
aF0.10614713281393
aF0.055269222706556
aF0.011760006658733
aF0.03911729902029
aF0.045319009572268
aF0.085506841540337
aF-0.080981023609638
aF-0.067114882171154
aF-0.021339561790228
aF-0.14043951034546
aF0.090631894767284
aF0.075006015598774
aF-0.043961577117443
aF-0.025718182325363
aF-0.004481740295887
aF0.065851397812366
aF0.056615199893713
aF0.061212439090014
aF0.051223881542683
aF-0.099160403013229
aF0.094420477747917
aF0.18360534310341
aF-0.091481246054173
aF0.13796123862267
aF0.062324449419975
asg4
S'/static/dataset/raw/Zhenghao_Chen/image-1.jpg'
p44
sa(dp45
g2
(lp46
F0.01155036687851
aF0.26557320356369
aF0.094930797815323
aF0.072126798331738
aF-0.036492858082056
aF0.21374078094959
aF-0.10212672501802
aF-0.060319870710373
aF-0.11052640527487
aF0.0698097422719
aF0.028365356847644
aF-0.065517567098141
aF-0.068165607750416
aF-0.17892101407051
aF0.04689334332943
aF0.047815836966038
aF-0.10155747830868
aF0.076313391327858
aF0.036992315202951
aF-0.044053737074137
aF0.06728695333004
aF0.015970466658473
aF0.070657193660736
aF-0.0038298340514302
aF0.08710291236639
aF-0.13206987082958
aF-0.038823537528515
aF-0.052225738763809
aF0.028050241991878
aF0.053025592118502
aF-0.017407350242138
aF-0.097380079329014
aF0.00074148393468931
aF0.029005696997046
aF0.12518286705017
aF-0.00016446887457278
aF0.042873103171587
aF-0.12378240376711
aF0.066426306962967
aF-0.039265140891075
aF-0.08958063274622
aF-0.15316194295883
aF0.078910455107689
aF-0.067050963640213
aF-0.02783403173089
aF0.058237716555595
aF0.1738156825304
aF-0.0081065557897091
aF-0.24094194173813
aF0.1127400547266
aF0.16107405722141
aF0.12169732153416
aF-0.017048969864845
aF0.041728056967258
aF0.014376468025148
aF0.0019703421276063
aF0.12097929418087
aF-0.16859990358353
aF0.00025298687978648
aF-0.092506907880306
aF-0.0066404417157173
aF0.052073530852795
aF0.027772262692451
aF-0.16117458045483
aF0.10802058130503
aF-0.0091175772249699
aF-0.041546959429979
aF-0.047599129378796
aF-0.1451660245657
aF0.18067672848701
aF-0.013855289667845
aF0.065457545220852
aF-0.082669265568256
aF-0.049549728631973
aF0.054293889552355
aF0.012656144797802
aF-0.010979347862303
aF0.05811446160078
aF0.033009391278028
aF0.061959579586983
aF-0.0012367375893518
aF-0.0030084929894656
aF0.023060847073793
aF0.088940486311913
aF-0.011034777387977
aF0.091095753014088
aF-0.14320982992649
aF-0.042288806289434
aF0.016227634623647
aF0.18820817768574
aF-0.026915760710835
aF-0.058287505060434
aF-0.07119907438755
aF0.093624606728554
aF-0.10557972639799
aF-0.053688254207373
aF0.002596492646262
aF0.14954096078873
aF-0.01213404815644
aF-0.021359499543905
aF0.10042115300894
aF0.092058032751083
aF-0.052996732294559
aF-0.049809120595455
aF0.067165017127991
aF0.077944792807102
aF0.089985497295856
aF0.04701891541481
aF-0.013344570994377
aF0.03587668761611
aF-0.03360965102911
aF-0.0054687242954969
aF0.08129346370697
aF-0.044325098395348
aF0.054337352514267
aF-0.0095648895949125
aF-0.053282432258129
aF0.066291317343712
aF0.019702611491084
aF0.068463496863842
aF0.061271850019693
aF-0.093489021062851
aF0.083030745387077
aF-0.058166649192572
aF0.14746530354023
aF0.10021363198757
aF0.23889094591141
aF0.012641956098378
asg4
S'/static/dataset/raw/Zhiyong_Wang/image-5.jpg'
p47
sa(dp48
g2
(lp49
F-0.0056071802973747
aF0.27632507681847
aF0.108807079494
aF-0.0061165825463831
aF-0.059289138764143
aF0.21668529510498
aF-0.10242062062025
aF-0.036519270390272
aF-0.14489045739174
aF0.14659547805786
aF0.046387951821089
aF-0.12294919788837
aF-0.024371843785048
aF-0.17264361679554
aF0.093030996620655
aF0.047077190130949
aF-0.097032323479652
aF0.15356461703777
aF-0.0037105821538717
aF-0.10995752364397
aF0.043958969414234
aF0.039875984191895
aF0.07854487746954
aF-0.0055987969972193
aF0.073685459792614
aF-0.13744542002678
aF-0.016007728874683
aF-0.010511133819818
aF0.053747516125441
aF0.0086171245202422
aF0.0073806261643767
aF-0.13170452415943
aF-0.048702955245972
aF0.035415939986706
aF0.14292396605015
aF-0.03926195949316
aF-0.0057451138272882
aF-0.11682103574276
aF0.10740979015827
aF0.0039920290000737
aF-0.12506946921349
aF-0.14959339797497
aF0.047547243535519
aF-0.0087378537282348
aF-0.012060252018273
aF-0.021200384944677
aF0.11737979948521
aF0.064405120909214
aF-0.25826695561409
aF0.10271631926298
aF0.18089801073074
aF0.070429399609566
aF-0.060727275907993
aF-0.0014313822612166
aF-0.11743462830782
aF0.0056985798291862
aF0.094292990863323
aF-0.11262853443623
aF0.017488012090325
aF-0.099530026316643
aF-0.01662215590477
aF0.067256048321724
aF0.035931151360273
aF-0.11140844225883
aF0.071084797382355
aF0.01881505548954
aF-0.046221684664488
aF-0.031987611204386
aF-0.16830599308014
aF0.15784645080566
aF-0.0070908926427364
aF0.065586373209953
aF-0.046200152486563
aF-0.045201946049929
aF-0.0091066136956215
aF-0.071485109627247
aF-0.033959578722715
aF-0.0025744368322194
aF0.061129249632359
aF0.044775687158108
aF0.037318136543036
aF-0.039836354553699
aF0.010797104798257
aF0.050343703478575
aF-0.060583908110857
aF0.044910192489624
aF-0.13798645138741
aF-0.083508379757404
aF0.07275865226984
aF0.17230078577995
aF-0.02800708077848
aF-0.048567179590464
aF-0.048662390559912
aF0.07479539513588
aF-0.068660587072372
aF-0.028099684044719
aF-0.045646660029888
aF0.15107552707195
aF-0.078489616513252
aF-0.0020068003796041
aF0.097197480499744
aF0.090870134532452
aF-0.063129410147667
aF-0.033865243196487
aF0.11723617464304
aF0.054403260350227
aF0.069664418697357
aF0.0094080297276378
aF0.030572324991226
aF0.018046131357551
aF0.00015474301471841
aF0.033749166876078
aF0.094495497643948
aF0.021980032324791
aF0.039803214371204
aF-0.025501128286123
aF-0.049376338720322
aF0.12394364178181
aF0.036721657961607
aF0.02396977506578
aF0.058232706040144
aF-0.15420547127724
aF0.054457604885101
aF-0.05454808473587
aF0.12610127031803
aF0.039092093706131
aF0.15653297305107
aF-0.019366743043065
asg4
S'/static/dataset/raw/Zhiyong_Wang/image-3.jpg'
p50
sa(dp51
g2
(lp52
F0.044225763529539
aF0.27005958557129
aF0.14940816164017
aF0.015718188136816
aF0.05882515385747
aF0.20749244093895
aF-0.048468075692654
aF-0.066360175609589
aF-0.041940964758396
aF0.10255371034145
aF0.05151254683733
aF-0.092642061412334
aF-0.065768182277679
aF-0.169419080019
aF0.083613313734531
aF0.024733258411288
aF-0.022054033353925
aF0.16981872916222
aF-0.098431967198849
aF-0.11107019335032
aF0.070980995893478
aF0.088900461792946
aF-0.023389801383018
aF-0.028039395809174
aF0.11136328428984
aF-0.16265194118023
aF-0.07798083871603
aF0.07484120875597
aF0.092759355902672
aF0.020747777074575
aF0.06212318316102
aF-0.042076855897903
aF-0.11476287990808
aF0.045461006462574
aF0.16112078726292
aF-0.020230818539858
aF-0.0006331013282761
aF-0.16602532565594
aF0.13407047092915
aF-0.052792400121689
aF-0.055398739874363
aF-0.073363550007343
aF0.034095752984285
aF-0.033107344061136
aF0.023824578151107
aF0.0014580944553018
aF0.02298236079514
aF0.10187688469887
aF-0.19292123615742
aF0.02782772295177
aF0.13702709972858
aF0.15283294022083
aF-0.10400003939867
aF-0.058171920478344
aF-0.12540882825851
aF-0.028450218960643
aF-0.019074836745858
aF-0.098009794950485
aF-0.070927649736404
aF-0.051001753658056
aF0.0096719404682517
aF0.035598963499069
aF0.02649937197566
aF-0.099173203110695
aF0.041264239698648
aF-3.7027228245279e-05
aF-0.022424671798944
aF0.021557124331594
aF-0.15858858823776
aF0.21801415085793
aF0.053439199924469
aF0.10121984779835
aF-0.013287152163684
aF-0.070303775370121
aF-0.099564306437969
aF-0.064253471791744
aF-0.0094419782981277
aF0.030760001391172
aF0.021712008863688
aF-0.0068343947641551
aF0.062534041702747
aF0.082879237830639
aF0.019656727090478
aF0.055093955248594
aF0.021231127902865
aF-0.018673533573747
aF-0.10865495353937
aF-0.012411933392286
aF0.044078636914492
aF0.19737227261066
aF0.027322366833687
aF-0.046236403286457
aF-0.091413557529449
aF0.1211986541748
aF-0.051091227680445
aF-0.049208786338568
aF-0.035306841135025
aF0.015607890672982
aF-0.094510614871979
aF0.0077096549794078
aF0.097309745848179
aF0.068948820233345
aF-0.08810979872942
aF-0.040785904973745
aF0.078479684889317
aF0.071116581559181
aF0.086124658584595
aF-0.010444337502122
aF0.092870436608791
aF0.061130903661251
aF0.025480957701802
aF0.0097253732383251
aF0.0094679398462176
aF0.10487704724073
aF0.10109660029411
aF-0.08256084471941
aF-0.10583646595478
aF0.11469777673483
aF0.011518997140229
aF0.011773959733546
aF0.048919249325991
aF-0.033730279654264
aF0.058594319969416
aF0.002677308395505
aF0.17838300764561
aF-0.0039267251268029
aF0.16223572194576
aF-0.099845886230469
asg4
S'/static/dataset/raw/Zhiyong_Wang/image-2.jpg'
p53
sa(dp54
g2
(lp55
F0.012519360519946
aF0.24853612482548
aF0.065576575696468
aF0.047793325036764
aF-0.039690479636192
aF0.17776748538017
aF-0.13658656179905
aF-0.025553043931723
aF-0.087753362953663
aF0.10043393820524
aF0.073204815387726
aF-0.10949753969908
aF-0.098289921879768
aF-0.16527397930622
aF0.066758938133717
aF0.021470988169312
aF-0.05867014080286
aF0.098272554576397
aF0.081461362540722
aF-0.06031009554863
aF0.036317199468613
aF-0.003978650085628
aF0.10814639180899
aF-0.032231736928225
aF0.11200281977654
aF-0.1308458596468
aF0.05962273478508
aF-0.027156300842762
aF0.036809638142586
aF-0.025054587051272
aF0.0051998808048666
aF-0.1517136991024
aF0.032834481447935
aF0.010541765019298
aF0.12343402951956
aF0.0090568047016859
aF0.038257177919149
aF-0.11201278865337
aF0.068949341773987
aF-0.047039777040482
aF-0.094407171010971
aF-0.14984229207039
aF0.012723963707685
aF-0.031392350792885
aF-0.052711732685566
aF0.066978462040424
aF0.11767323315144
aF0.017554366961122
aF-0.2302031069994
aF0.089699126780033
aF0.11469890922308
aF0.17412923276424
aF-0.034606087952852
aF0.013516555540264
aF-0.057503167539835
aF-0.0084663461893797
aF0.12994515895844
aF-0.19758769869804
aF-0.022585736587644
aF-0.085230283439159
aF-0.008065914735198
aF0.0068402080796659
aF0.043126873672009
aF-0.12931068241596
aF0.097728505730629
aF-0.0068227886222303
aF-0.047321349382401
aF-0.010169195942581
aF-0.088000454008579
aF0.22410126030445
aF-0.030459148809314
aF0.04886407032609
aF-0.095245249569416
aF-0.077041611075401
aF0.041484419256449
aF-0.045651946216822
aF-0.011280564591289
aF0.10610935091972
aF0.013176072388887
aF0.026336148381233
aF-0.072592385113239
aF0.0021442230790854
aF0.0013517072657123
aF0.059986639767885
aF0.00061929225921631
aF0.082823701202869
aF-0.15646363794804
aF-0.018951438367367
aF0.042316529899836
aF0.15670524537563
aF0.005074190441519
aF-0.02681465446949
aF-0.07177397608757
aF0.080339044332504
aF-0.039217658340931
aF-0.096676699817181
aF-0.0090766260400414
aF0.13212144374847
aF-0.023728216066957
aF-0.053055677562952
aF0.077766388654709
aF0.063648775219917
aF-0.048500373959541
aF-0.083451598882675
aF0.12331604957581
aF0.071633212268353
aF0.12756609916687
aF0.02171297185123
aF0.032027710229158
aF0.015238407067955
aF-0.040038116276264
aF0.014579644426703
aF0.11819206178188
aF-0.013836497440934
aF0.082801155745983
aF-0.055115699768066
aF-0.051663063466549
aF0.016894703730941
aF0.08803566545248
aF0.050429958850145
aF0.054459378123283
aF-0.088905833661556
aF0.054028522223234
aF-0.0090686017647386
aF0.17305834591389
aF0.045055143535137
aF0.25255239009857
aF0.024346245452762
asg4
S'/static/dataset/raw/Zhiyong_Wang/image-4.jpg'
p56
sa(dp57
g2
(lp58
F0.076924502849579
aF0.29928463697433
aF0.077047489583492
aF0.067788802087307
aF0.0047419755719602
aF0.21215227246284
aF-0.070317767560482
aF-0.015367195010185
aF-0.06745906919241
aF0.079597972333431
aF0.074499219655991
aF-0.12515553832054
aF-0.055544681847095
aF-0.14798305928707
aF0.059706084430218
aF0.071233324706554
aF0.024699853733182
aF0.1232325732708
aF-0.027806740254164
aF-0.10723369568586
aF0.11162793636322
aF0.048939295113087
aF0.025922106578946
aF-0.020759122446179
aF0.14075373113155
aF-0.19508761167526
aF-0.014012028463185
aF0.0072125256992877
aF0.076528914272785
aF0.058380492031574
aF0.0070057669654489
aF-0.072640672326088
aF-0.046122059226036
aF0.033887799829245
aF0.098286010324955
aF-0.044072329998016
aF0.057104926556349
aF-0.13806755840778
aF0.082754611968994
aF-0.037941433489323
aF-0.093419082462788
aF-0.088063284754753
aF0.077588252723217
aF-0.029845090582967
aF0.0053604585118592
aF0.022023862227798
aF0.099226959049702
aF-0.013025291264057
aF-0.21463547646999
aF0.044540125876665
aF0.20568457245827
aF0.13185892999172
aF-0.093031406402588
aF0.0043056225404143
aF-0.089733995497227
aF-0.013150090351701
aF0.063832700252533
aF-0.16249580681324
aF0.046398166567087
aF-0.10837886482477
aF0.020111352205276
aF-0.023892629891634
aF-0.014546758495271
aF-0.18026115000248
aF0.06649362295866
aF-0.032140992581844
aF-0.015295157209039
aF-0.0092178508639336
aF-0.091931425035
aF0.20483914017677
aF0.012558046728373
aF0.088470250368118
aF-0.049135059118271
aF-0.13670967519283
aF-0.034927193075418
aF-0.027731351554394
aF0.011871281079948
aF0.11465009301901
aF-0.041317529976368
aF0.012482617981732
aF0.015041337348521
aF0.053873900324106
aF0.023467008024454
aF0.053305998444557
aF0.051771022379398
aF0.089102409780025
aF-0.13724283874035
aF-0.06612740457058
aF0.015328692272305
aF0.15974576771259
aF-0.045136302709579
aF-0.089764982461929
aF-0.16325855255127
aF0.065855644643307
aF-0.047998059540987
aF-0.052520394325256
aF0.0052294852212071
aF0.086804337799549
aF-0.055952921509743
aF0.020105894654989
aF0.06541220843792
aF0.080070585012436
aF-0.017047820612788
aF0.011544992215931
aF0.028161935508251
aF0.033446982502937
aF0.07559859007597
aF0.037145845592022
aF0.0026012079324573
aF-0.0054375627078116
aF-0.034281507134438
aF-0.018480638042092
aF0.052236411720514
aF0.020568022504449
aF0.094777785241604
aF-0.074752494692802
aF-0.11147030442953
aF0.060952622443438
aF-0.0036225966177881
aF-0.0039263730868697
aF0.018242200836539
aF-0.015651486814022
aF0.082537725567818
aF0.018768705427647
aF0.23074406385422
aF-0.0051318588666618
aF0.1881832331419
aF-0.038008615374565
asg4
S'/static/dataset/raw/Zhiyong_Wang/image-6.jpg'
p59
sa(dp60
g2
(lp61
F-0.002786525990814
aF0.25699451565742
aF0.054630130529404
aF0.013667465187609
aF-0.053690187633038
aF0.21073757112026
aF-0.10367273539305
aF-0.077826343476772
aF-0.11479874700308
aF0.099752955138683
aF0.049442660063505
aF-0.094095394015312
aF-0.044174011796713
aF-0.12563848495483
aF0.07299593091011
aF-0.0065538263879716
aF-0.062929563224316
aF0.13290619850159
aF0.049875617027283
aF-0.10099124908447
aF0.0046568308025599
aF0.0010860831243917
aF0.095147378742695
aF8.4375373262446e-05
aF0.11525502800941
aF-0.17021180689335
aF0.026397043839097
aF0.019285192713141
aF0.005970049649477
aF0.018660446628928
aF0.039982337504625
aF-0.16933611035347
aF-0.0097137745469809
aF0.013548344373703
aF0.12937723100185
aF-0.031771630048752
aF-0.013219028711319
aF-0.13508880138397
aF0.1051494255662
aF-0.011639424599707
aF-0.10474642366171
aF-0.14165358245373
aF0.060691550374031
aF-0.0048822811804712
aF-0.051409319043159
aF-0.042207628488541
aF0.081154495477676
aF0.060959219932556
aF-0.20496797561646
aF0.11621516942978
aF0.14823232591152
aF0.077179729938507
aF-0.0096578933298588
aF-0.0090270340442657
aF-0.1182523816824
aF0.014334438368678
aF0.061669919639826
aF-0.069971226155758
aF-0.0073423595167696
aF-0.074996806681156
aF-0.050974506884813
aF0.079016350209713
aF0.066220730543137
aF-0.1493479013443
aF0.078752927482128
aF0.040220804512501
aF-0.054174080491066
aF-0.053860820829868
aF-0.22431267797947
aF0.14880593121052
aF0.0057187573984265
aF0.051924966275692
aF-0.065294377505779
aF-0.058958813548088
aF0.013128136284649
aF-0.035669159144163
aF0.0013600417878479
aF-0.057611167430878
aF0.047247271984816
aF0.073055028915405
aF-0.024367440491915
aF-0.086063377559185
aF0.040846671909094
aF0.064175672829151
aF-0.064831979572773
aF0.043212998658419
aF-0.15626177191734
aF-0.10090970993042
aF0.063375629484653
aF0.14330169558525
aF-0.046861439943314
aF-0.080690063536167
aF0.0029414237942547
aF0.06719521433115
aF-0.035026229918003
aF-0.071318909525871
aF-0.052164748311043
aF0.14244781434536
aF-0.081132337450981
aF-0.011392518877983
aF0.081486135721207
aF0.10393337160349
aF-0.053451549261808
aF-0.036754246801138
aF0.11401161551476
aF0.089005745947361
aF0.10068867355585
aF0.012700468301773
aF-0.0019290718482807
aF0.017610304057598
aF0.0071472031995654
aF-0.0036415893118829
aF0.1300637871027
aF0.059130698442459
aF0.00091549789067358
aF-0.029445186257362
aF-0.026227718219161
aF0.16979946196079
aF0.084609881043434
aF0.075966358184814
aF0.055015243589878
aF-0.19839262962341
aF-0.0026953821070492
aF-0.077716045081615
aF0.13463017344475
aF0.048610243946314
aF0.15412648022175
aF0.0092871859669685
asg4
S'/static/dataset/raw/Zhiyong_Wang/image-1.jpg'
p62
sa(dp63
g2
(lp64
F0.063272416591644
aF0.20672471821308
aF0.048144463449717
aF0.038492254912853
aF-0.11482289433479
aF0.089234724640846
aF-0.062186293303967
aF-0.1791258007288
aF0.00033209228422493
aF-0.12096875160933
aF0.14421144127846
aF-0.049294915050268
aF-0.070123039186001
aF-0.020971093326807
aF0.036475360393524
aF-0.065182849764824
aF-0.089865274727345
aF-0.070012912154198
aF0.027362462133169
aF-0.085914604365826
aF-0.02586473710835
aF0.13795848190784
aF-0.1334253847599
aF-0.0083484891802073
aF0.085832022130489
aF0.015602089464664
aF0.048496626317501
aF0.058137848973274
aF0.068896673619747
aF0.10721759498119
aF0.017017815262079
aF-0.016050277277827
aF-0.014954557642341
aF0.0016142851673067
aF0.049240205436945
aF0.041346564888954
aF0.034362744539976
aF-0.099039532244205
aF0.16986235976219
aF0.068510949611664
aF0.0089034531265497
aF-0.10619866847992
aF-0.015988782048225
aF0.0055536380968988
aF0.037967797368765
aF0.095443561673164
aF0.066455543041229
aF-0.05013233423233
aF-0.15903787314892
aF-0.082530006766319
aF-0.034885037690401
aF0.21436016261578
aF0.085812732577324
aF0.041488591581583
aF-0.060049798339605
aF0.019638916477561
aF-0.092241391539574
aF0.029786147177219
aF-0.10877913236618
aF0.012631570920348
aF-0.075068458914757
aF0.0056156264618039
aF0.13784836232662
aF-0.0042959074489772
aF-0.082038678228855
aF0.10981006920338
aF0.14322558045387
aF-0.079668059945107
aF-0.036912888288498
aF0.019528947770596
aF0.0096006914973259
aF-0.11260187625885
aF-0.038013897836208
aF-0.012796041555703
aF0.15462037920952
aF-0.059464488178492
aF-0.066163100302219
aF-0.1249382942915
aF-0.080200843513012
aF0.16989693045616
aF0.099828347563744
aF0.054587583988905
aF0.023138532415032
aF-0.044874757528305
aF0.005251997616142
aF0.10266310721636
aF-0.059877406805754
aF-0.19332386553288
aF-0.14793492853642
aF0.12156239897013
aF0.092526748776436
aF-0.12925384938717
aF-0.023874558508396
aF0.11706721037626
aF-0.094703204929829
aF-0.079224988818169
aF-0.030497439205647
aF-0.068979039788246
aF0.14174531400204
aF-0.04153186827898
aF-0.051597326993942
aF0.083708114922047
aF-0.0035291570238769
aF0.023228947073221
aF-0.070820830762386
aF0.13269218802452
aF0.10392880439758
aF0.14073905348778
aF-0.05589122697711
aF-0.040826909244061
aF0.12980251014233
aF-0.068875417113304
aF-0.1136211976409
aF-0.0018021054565907
aF-0.0099090300500393
aF-0.020658176392317
aF-0.10474912077188
aF-0.00082472758367658
aF0.13664638996124
aF-0.032485611736774
aF0.093389570713043
aF-0.11000494658947
aF0.0038357605226338
aF-0.0031270438339561
aF0.1542903482914
aF0.047388847917318
aF0.16360978782177
aF0.013707214035094
asg4
S'/static/dataset/raw/Barack_Obama/image-5.jpg'
p65
sa(dp66
g2
(lp67
F0.019320541992784
aF0.26696357131004
aF0.11484476923943
aF0.02893565967679
aF-0.03169272094965
aF0.14787910878658
aF-0.030372146517038
aF-0.18186897039413
aF0.011099166236818
aF-0.10638433694839
aF0.097282893955708
aF-0.055302374064922
aF-0.057603515684605
aF-0.098416350781918
aF0.0034484216012061
aF-0.0090160267427564
aF-0.15722531080246
aF-0.018263451755047
aF-0.1051502674818
aF-0.11830902099609
aF0.085821777582169
aF0.077759258449078
aF-0.071676470339298
aF-0.084193259477615
aF0.12280517071486
aF-0.063396692276001
aF-0.08029368519783
aF0.044135794043541
aF0.092621572315693
aF0.093714728951454
aF0.073774114251137
aF-0.0082527259364724
aF-0.077189072966576
aF0.018509140238166
aF0.10226933658123
aF-0.010506253689528
aF-0.010874436236918
aF-0.046136185526848
aF0.19885045289993
aF0.038089521229267
aF0.025298258289695
aF-0.08381874114275
aF0.013680273666978
aF-0.032882634550333
aF0.044319376349449
aF0.055675134062767
aF0.043757069855928
aF-0.022188866510987
aF-0.17682863771915
aF-0.071052886545658
aF-0.026903642341495
aF0.23664127290249
aF0.015701081603765
aF0.025558451190591
aF-0.08312763273716
aF-0.016542226076126
aF-0.024261934682727
aF0.0056368876248598
aF-0.15168400108814
aF-0.031630158424377
aF-0.06113213673234
aF0.022862510755658
aF0.11853075027466
aF-0.019699534401298
aF-0.014943309128284
aF0.079456709325314
aF0.066516540944576
aF0.0056057325564325
aF-0.090432047843933
aF0.10168617963791
aF0.075073309242725
aF0.0016152086900547
aF-0.030086562037468
aF-0.016614090651274
aF0.10272414982319
aF-0.018420474603772
aF-0.089951485395432
aF-0.12471827864647
aF-0.05977874994278
aF0.17133916914463
aF0.055193983018398
aF0.052018944174051
aF0.09092716127634
aF0.058329802006483
aF-0.06585805118084
aF0.078096225857735
aF-0.031164962798357
aF-0.09631971269846
aF-0.11162711679935
aF0.090980485081673
aF0.065003141760826
aF-0.1488296687603
aF-0.014982853084803
aF0.11021535098553
aF-0.12755073606968
aF-0.11997779458761
aF-0.047427266836166
aF4.4432341383072e-05
aF0.040523003786802
aF-0.008471941575408
aF0.0081962868571281
aF0.066538952291012
aF-0.061476472765207
aF0.078134939074516
aF0.019418284296989
aF0.10705684870481
aF0.099521651864052
aF0.20268028974533
aF0.039976023137569
aF-0.037265710532665
aF0.055374581366777
aF-0.056503001600504
aF-0.16334341466427
aF0.08512681722641
aF0.059082377701998
aF0.019624026492238
aF-0.16674073040485
aF0.1110780313611
aF0.10582869499922
aF0.038491778075695
aF0.073713846504688
aF-0.037384368479252
aF-0.013558775186539
aF-0.016554445028305
aF0.15546441078186
aF0.057404264807701
aF0.15844026207924
aF0.01935220696032
asg4
S'/static/dataset/raw/Barack_Obama/image-7.jpg'
p68
sa(dp69
g2
(lp70
F0.0060931351035833
aF0.24100324511528
aF0.051181454211473
aF0.0096979606896639
aF-0.10827275365591
aF0.10621649771929
aF-0.046442378312349
aF-0.13279214501381
aF0.040342353284359
aF-0.087670646607876
aF0.11722975224257
aF-0.1087227165699
aF-0.026131343096495
aF-0.051695875823498
aF0.03401866927743
aF-0.048737365752459
aF-0.099602743983269
aF0.024740071967244
aF-0.067450106143951
aF-0.16307872533798
aF0.045858968049288
aF0.07966935634613
aF-0.060301784425974
aF-0.058988489210606
aF0.094516016542912
aF-0.070491015911102
aF0.00083528365939856
aF-0.0058209439739585
aF0.086087360978127
aF0.095101952552795
aF0.087504155933857
aF0.027448788285255
aF0.0089886402711272
aF-0.0013491692952812
aF0.074990749359131
aF-0.0162662435323
aF-0.021018011495471
aF-0.030781727284193
aF0.10856531560421
aF0.057310439646244
aF0.0064837960526347
aF-0.11677428334951
aF-0.065864115953445
aF0.074613630771637
aF0.026971686631441
aF0.097023479640484
aF0.029428193345666
aF-0.038317732512951
aF-0.2099287956953
aF-0.15909607708454
aF-0.022143885493279
aF0.21655498445034
aF0.087983123958111
aF-0.034906104207039
aF-0.17513404786587
aF0.049699369817972
aF-0.022640680894256
aF-0.0017333207651973
aF-0.054420731961727
aF-0.033537689596415
aF-0.080838270485401
aF-0.004710029810667
aF0.078015953302383
aF0.023529889062047
aF-0.026002811267972
aF0.055120103061199
aF0.10184479504824
aF-0.025606691837311
aF-0.057068377733231
aF0.073472641408443
aF0.032148346304893
aF-0.12658888101578
aF-0.048307787626982
aF-0.11035584658384
aF0.075873829424381
aF-0.04662399739027
aF-0.13520653545856
aF-0.13569350540638
aF-0.1249432861805
aF0.15874856710434
aF0.0063399630598724
aF0.029403058812022
aF-0.0099609671160579
aF-0.022351877763867
aF-0.049029272049665
aF0.10488933324814
aF-0.033019982278347
aF-0.21440409123898
aF-0.17242884635925
aF0.081695474684238
aF0.038646202534437
aF-0.13459034264088
aF-0.053332887589931
aF0.038414288312197
aF-0.080865196883678
aF-0.05001062899828
aF-0.059523351490498
aF-0.0097977034747601
aF0.078548975288868
aF-0.0045495550148189
aF0.0069705941714346
aF0.077704586088657
aF-0.0018435132224113
aF0.08278988301754
aF-0.015180115588009
aF0.038052380084991
aF0.070062793791294
aF0.17625890672207
aF0.021220209077001
aF-0.088156677782536
aF0.065275147557259
aF-0.059411372989416
aF-0.17459709942341
aF-0.01689568720758
aF0.022884411737323
aF-0.00021212729916442
aF-0.18188570439816
aF-0.016818890348077
aF0.1911339610815
aF0.014286451041698
aF0.089598447084427
aF-0.086718760430813
aF-0.081391111016273
aF0.021131789311767
aF0.2005021572113
aF-0.0053623584099114
aF0.10411339253187
aF0.011435482650995
asg4
S'/static/dataset/raw/Barack_Obama/image-3.jpg'
p71
sa(dp72
g2
(lp73
F-0.0083888880908489
aF0.25346970558167
aF0.085486955940723
aF0.12183590978384
aF-0.1115041077137
aF0.15011939406395
aF-0.023602792993188
aF-0.15592673420906
aF0.005981725640595
aF-0.045123144984245
aF0.098030641674995
aF-0.073242761194706
aF-0.020071556791663
aF-0.060052827000618
aF0.074507996439934
aF-0.056279495358467
aF-0.10860145837069
aF-0.020400151610374
aF-0.051400288939476
aF-0.11721164733171
aF0.013853954151273
aF-0.028722016140819
aF-0.068257004022598
aF0.016248138621449
aF0.1588671207428
aF-0.12083921581507
aF-0.083212852478027
aF-0.0079758539795876
aF0.014858907088637
aF0.092330612242222
aF0.11056526005268
aF0.083346083760262
aF-0.045237395912409
aF0.039097059518099
aF0.030264595523477
aF0.017211919650435
aF-0.025410823523998
aF-0.06897297501564
aF0.077120907604694
aF0.023066196590662
aF0.066441833972931
aF-0.17337477207184
aF-0.011110803112388
aF-0.027724279090762
aF0.023164257407188
aF0.046495784074068
aF0.065710194408894
aF-0.025527145713568
aF-0.1830243319273
aF-0.1113348454237
aF0.058458048850298
aF0.17452712357044
aF0.089710585772991
aF-0.038656685501337
aF-0.053332291543484
aF0.057790730148554
aF-0.073792636394501
aF-0.0070420918054879
aF0.012905244715512
aF-0.061242945492268
aF-0.10715772211552
aF0.039710104465485
aF0.013557725585997
aF-0.08681858330965
aF0.0061729135923088
aF0.16993157565594
aF0.11490217596292
aF-0.057505313307047
aF-0.14647345244884
aF0.072676859796047
aF0.0067238551564515
aF-0.013682665303349
aF-0.045104172080755
aF-0.038145467638969
aF0.13476765155792
aF-0.017760099843144
aF-0.059801947325468
aF-0.12416010349989
aF-0.076259270310402
aF0.20836190879345
aF-0.010047566145658
aF-0.038570515811443
aF0.020505283027887
aF-0.04512682184577
aF-0.060517396777868
aF0.10572447627783
aF-0.031600624322891
aF-0.19039352238178
aF-0.13582928478718
aF0.090325638651848
aF-0.0020390411373228
aF-0.13087202608585
aF0.024856762960553
aF0.028548864647746
aF-0.16173206269741
aF-0.057243883609772
aF-0.02907931804657
aF-0.028539270162582
aF0.1036681830883
aF-0.027334969490767
aF0.020946469157934
aF0.07765307277441
aF-0.00096260610735044
aF0.081139512360096
aF-0.016471885144711
aF0.094033010303974
aF0.049339592456818
aF0.18682374060154
aF-0.017456691712141
aF-0.044367391616106
aF0.019189432263374
aF-0.004764529876411
aF-0.13898776471615
aF-0.058706253767014
aF0.024831376969814
aF-0.029339594766498
aF-0.15268149971962
aF0.053740851581097
aF0.16397681832314
aF0.066461935639381
aF0.09451375156641
aF-0.095965847373009
aF-0.058513209223747
aF0.023400582373142
aF0.19033874571323
aF0.067545726895332
aF0.12450113147497
aF0.021185018122196
asg4
S'/static/dataset/raw/Barack_Obama/image-2.jpg'
p74
sa(dp75
g2
(lp76
F0.011405389755964
aF0.20906873047352
aF0.071095772087574
aF-0.0180748924613
aF-0.091419354081154
aF0.11855398118496
aF-0.11918076127768
aF-0.14633075892925
aF0.016961073502898
aF-0.13681881129742
aF0.11990853399038
aF-0.10960536450148
aF0.017148008570075
aF-0.021021330729127
aF0.060782462358475
aF-0.0043652607128024
aF-0.07819739729166
aF-0.047069359570742
aF-0.05772777274251
aF-0.1169651299715
aF0.074794888496399
aF0.097541406750679
aF-0.01712952926755
aF-0.00095475342823192
aF0.10642708092928
aF-0.032637014985085
aF0.036811921745539
aF-0.024856716394424
aF0.083446435630322
aF0.080150738358498
aF0.13222634792328
aF-0.01419791392982
aF0.019155718386173
aF0.030684420838952
aF0.053897377103567
aF0.042402971535921
aF0.0078251706436276
aF-0.00062336272094399
aF0.12725152075291
aF0.069406993687153
aF-0.0059750284999609
aF-0.1116831600666
aF-0.051523022353649
aF0.048084709793329
aF0.047508012503386
aF0.104227386415
aF0.061054047197104
aF-0.018866516649723
aF-0.20125567913055
aF-0.1288079470396
aF-0.052839327603579
aF0.1563501060009
aF0.10994833707809
aF-0.01898355782032
aF-0.1411219984293
aF0.04219888523221
aF-0.024203769862652
aF0.036499697715044
aF-0.052073519676924
aF-0.059576403349638
aF-0.097935520112514
aF0.013257646001875
aF0.075485609471798
aF-0.00037628822610714
aF-0.037819687277079
aF0.060074128210545
aF0.10866241157055
aF0.022256869822741
aF-0.038818567991257
aF0.048322129994631
aF0.010324256494641
aF-0.11636128276587
aF-0.095257185399532
aF-0.14244073629379
aF0.14588086307049
aF-0.041841506958008
aF-0.13429021835327
aF-0.10089822113514
aF-0.090488955378532
aF0.24019491672516
aF0.038265299052
aF0.01286702323705
aF0.017495840787888
aF-0.025283351540565
aF-0.070881485939026
aF0.10932640731335
aF-0.018545623868704
aF-0.1846604347229
aF-0.20258887112141
aF0.073265984654427
aF0.057464450597763
aF-0.1317158639431
aF-0.025511151179671
aF0.094021126627922
aF-0.10796853154898
aF-0.043024115264416
aF-0.087903454899788
aF0.027526134625077
aF0.072489023208618
aF-0.037154667079449
aF-0.012255216017365
aF0.047103088349104
aF-0.043144710361958
aF0.10319408029318
aF-0.021556919440627
aF0.056663285940886
aF0.0332434438169
aF0.16220703721046
aF0.021685373038054
aF-0.11429767310619
aF0.052309274673462
aF-0.034481756389141
aF-0.17590241134167
aF0.0060478788800538
aF0.021110340952873
aF0.053745161741972
aF-0.22821831703186
aF-0.010827389545739
aF0.11290558427572
aF0.062549218535423
aF0.084289133548737
aF-0.066165246069431
aF-0.086809486150742
aF0.030064254999161
aF0.13548856973648
aF0.023922933265567
aF0.078094892203808
aF0.02793893404305
asg4
S'/static/dataset/raw/Barack_Obama/image-4.jpg'
p77
sa(dp78
g2
(lp79
F0.0125348046422
aF0.18560603260994
aF0.13724321126938
aF0.10926663130522
aF-0.028887866064906
aF0.10396803915501
aF-0.071043349802494
aF-0.21938785910606
aF0.077240228652954
aF-0.15596842765808
aF0.097073309123516
aF-0.011231567710638
aF-0.070937640964985
aF-0.021948557347059
aF0.041116796433926
aF-0.025079047307372
aF-0.052118480205536
aF0.0038585478905588
aF-0.10561653226614
aF-0.10933765023947
aF0.040826316922903
aF0.07808106392622
aF-0.098891228437424
aF0.009431348182261
aF0.16945280134678
aF-0.076376229524612
aF-0.054338235408068
aF0.059866648167372
aF-0.0016031697159633
aF0.084314450621605
aF0.13315418362617
aF0.079517908394337
aF-0.021627923473716
aF0.041752632707357
aF0.05892638862133
aF0.04599766805768
aF-0.015946282073855
aF-0.099293485283852
aF0.1088800355792
aF0.0060875262133777
aF0.088177092373371
aF-0.068371646106243
aF0.021312970668077
aF-0.047697011381388
aF0.068258121609688
aF0.061075747013092
aF0.018136223778129
aF-0.054953843355179
aF-0.13800922036171
aF-0.14090560376644
aF0.010491671971977
aF0.14272952079773
aF0.10763258486986
aF-0.04231496155262
aF-0.07179881632328
aF0.037002265453339
aF-0.13501179218292
aF0.022814225405455
aF-0.074067078530788
aF0.00039054980152287
aF-0.079642504453659
aF0.035083010792732
aF0.0092814583331347
aF-0.034274943172932
aF-0.010665172711015
aF0.12879826128483
aF0.087200090289116
aF-0.0091222980991006
aF-0.12719260156155
aF0.10436170548201
aF0.072266072034836
aF-0.055125277489424
aF-0.024828031659126
aF-0.10633640736341
aF0.09357326477766
aF0.020519226789474
aF-0.078507296741009
aF-0.14821256697178
aF-0.12658020853996
aF0.15359346568584
aF0.030991997569799
aF0.080896727740765
aF0.042567357420921
aF-0.025075228884816
aF-0.053007062524557
aF0.081220604479313
aF-0.020024783909321
aF-0.15287603437901
aF-0.22689731419086
aF0.11011990904808
aF0.030974078923464
aF-0.13812530040741
aF-0.0079446965828538
aF0.094410963356495
aF-0.11277467012405
aF-0.005970710888505
aF-0.072127185761929
aF-0.082398764789104
aF0.078308567404747
aF-0.018015582114458
aF-0.016819629818201
aF0.024841601029038
aF-0.03671196103096
aF0.061161134392023
aF-0.010627090930939
aF0.090632177889347
aF0.062710829079151
aF0.12697149813175
aF-0.037637449800968
aF-0.056135561317205
aF0.030600095167756
aF-0.06525980681181
aF-0.14751021564007
aF0.021600719541311
aF0.041297402232885
aF-0.050387881696224
aF-0.21606029570103
aF0.056748997420073
aF0.11308955401182
aF0.043080046772957
aF0.10171376913786
aF-0.0094732828438282
aF-0.073940716683865
aF-0.0013658193638548
aF0.2188533693552
aF0.061629299074411
aF0.13625434041023
aF-0.022261399775743
asg4
S'/static/dataset/raw/Barack_Obama/image-8.jpg'
p80
sa(dp81
g2
(lp82
F0.020553959533572
aF0.19798204302788
aF0.17827427387238
aF0.062476936727762
aF-0.066650249063969
aF0.15911144018173
aF-0.057741057127714
aF-0.13083684444427
aF-0.049248605966568
aF-0.10868429392576
aF0.12279348820448
aF-0.062552750110626
aF-0.055813752114773
aF-0.11989484727383
aF0.079549245536327
aF-0.048431802541018
aF-0.16234688460827
aF-0.022019287571311
aF-0.026546623557806
aF-0.084057211875916
aF0.095390655100346
aF0.059606589376926
aF-0.046239625662565
aF0.014919989742339
aF0.15420940518379
aF-0.039166133850813
aF-0.022062420845032
aF-0.03873610496521
aF0.070993930101395
aF0.053896546363831
aF0.10262452811003
aF-0.10522397607565
aF-0.038775980472565
aF0.042252793908119
aF0.12624868750572
aF0.03416458144784
aF-0.040152233093977
aF-0.062254879623652
aF0.10610547661781
aF-0.013371022418141
aF0.035986043512821
aF-0.13839563727379
aF-0.01297053694725
aF0.078249633312225
aF-0.016330193728209
aF0.063932180404663
aF0.093488924205303
aF-0.037480037659407
aF-0.21804858744144
aF-0.070553325116634
aF-0.0056650913320482
aF0.15893588960171
aF0.033302061259747
aF-0.0078876800835133
aF-0.015677940100431
aF0.020021079108119
aF-0.081795945763588
aF0.024931335821748
aF-0.088397018611431
aF-0.062964200973511
aF-0.072849668562412
aF-0.017799235880375
aF0.10546872764826
aF-0.013289879076183
aF0.063109330832958
aF0.051628839224577
aF0.074432268738747
aF-0.068660706281662
aF-0.092511080205441
aF0.13460472226143
aF0.021575774997473
aF-0.0057250657118857
aF-0.04537570104003
aF-0.078212380409241
aF0.10185342282057
aF-0.071298331022263
aF-0.098526857793331
aF-0.038498755544424
aF-0.013510204851627
aF0.2366334348917
aF0.013472829945385
aF-0.015640957280993
aF0.052762776613235
aF-0.0068170432932675
aF-0.061245895922184
aF0.014101661741734
aF-0.006317172665149
aF-0.099095612764359
aF-0.13133272528648
aF0.13016022741795
aF0.08502272516489
aF-0.10678192228079
aF-0.040828913450241
aF0.075122117996216
aF-0.16723643243313
aF-0.098975822329521
aF-0.034337233752012
aF0.0095308367162943
aF0.076923407614231
aF-0.046459272503853
aF-0.01877374574542
aF0.11565975099802
aF-0.042394381016493
aF-0.016073726117611
aF0.0095579046756029
aF0.10855466872454
aF0.11313278973103
aF0.16663628816605
aF0.063831612467766
aF-0.067891627550125
aF0.061030104756355
aF-0.019196974113584
aF-0.16058018803596
aF-0.00244977674447
aF0.091442942619324
aF0.024220112711191
aF-0.13267859816551
aF0.010977426543832
aF0.090493507683277
aF0.076209150254726
aF0.080613471567631
aF-0.07439324259758
aF-0.058409795165062
aF0.015937436372042
aF0.17300964891911
aF0.077870100736618
aF0.23273487389088
aF0.041197255253792
asg4
S'/static/dataset/raw/Barack_Obama/image-6.jpg'
p83
sa(dp84
g2
(lp85
F-0.027115147560835
aF0.29222455620766
aF0.14244243502617
aF-0.073696292936802
aF-0.068223834037781
aF0.016961993649602
aF-0.036136362701654
aF0.058968599885702
aF0.167301222682
aF0.0017501849215478
aF0.058590546250343
aF-0.17623691260815
aF-0.0042205550707877
aF-0.019574830308557
aF0.10322184115648
aF-0.078203558921814
aF-0.041897479444742
aF-0.078672848641872
aF-0.16820384562016
aF-0.085874550044537
aF0.010510885156691
aF0.079149834811687
aF-0.047029655426741
aF-0.025332044810057
aF0.046052441000938
aF-0.15294696390629
aF0.0015964577905834
aF0.14555795490742
aF0.12955304980278
aF-0.0037830448709428
aF0.084368444979191
aF-0.075909845530987
aF0.038402456790209
aF0.064741730690002
aF0.018473790958524
aF0.0044229761697352
aF0.12377578020096
aF0.093072228133678
aF0.0037100212648511
aF0.052260849624872
aF-0.0024375026114285
aF-0.074806451797485
aF-0.060240644961596
aF-0.047418843954802
aF0.065188817679882
aF0.10283271223307
aF-0.060018438845873
aF0.056334383785725
aF-0.060488361865282
aF-0.0029478052165359
aF-0.061931852251291
aF0.3065787255764
aF-0.048222992569208
aF0.0074754185043275
aF-0.059967953711748
aF-0.030061261728406
aF-0.035014066845179
aF-0.16531828045845
aF-0.063781283795834
aF-0.14435078203678
aF-0.086953401565552
aF-0.083896778523922
aF-0.078100733458996
aF0.03352140635252
aF-0.167226806283
aF0.035602528601885
aF0.11647453904152
aF0.097216561436653
aF0.0065288152545691
aF0.075415410101414
aF0.073906801640987
aF-0.065884426236153
aF-0.045176088809967
aF-0.043783839792013
aF0.15061330795288
aF-0.013003414496779
aF-0.081711202859879
aF0.047670260071754
aF0.019882390275598
aF0.083884038031101
aF-0.0038873013108969
aF0.066446505486965
aF0.056878302246332
aF0.09000651538372
aF0.12391023337841
aF0.045746702700853
aF-0.0362215526402
aF0.015914173796773
aF0.052519541233778
aF0.11336842924356
aF0.0050288201309741
aF-0.12578375637531
aF0.01420818362385
aF0.031282614916563
aF-0.10101982951164
aF-0.16285699605942
aF-0.038743011653423
aF-0.054730203002691
aF0.00905523262918
aF-0.082672707736492
aF0.03202523291111
aF0.047778148204088
aF-0.011133989319205
aF0.051129762083292
aF-0.057183533906937
aF0.012159843929112
aF-0.023853473365307
aF0.06580114364624
aF0.13507755100727
aF-0.055024869740009
aF0.055053774267435
aF0.021805740892887
aF-0.19359456002712
aF0.11389794945717
aF0.020159598439932
aF-0.020609280094504
aF-0.11112191528082
aF-0.053296111524105
aF0.062073029577732
aF0.012359836138785
aF0.070448391139507
aF0.097711496055126
aF-0.021198565140367
aF0.14189325273037
aF0.1332628428936
aF-0.088025152683258
aF0.15263018012047
aF0.0012369365431368
asg4
S'/static/dataset/raw/Donald_Trump/image-5.jpg'
p86
sa(dp87
g2
(lp88
F-0.089637570083141
aF0.25308972597122
aF0.17822089791298
aF-0.15761856734753
aF-0.036143936216831
aF0.016907833516598
aF-0.050339110195637
aF0.099124386906624
aF0.1096889898181
aF0.085100561380386
aF0.058380931615829
aF-0.15749157965183
aF0.022910201922059
aF-0.038437679409981
aF0.11006337404251
aF0.00036944891326129
aF-0.088190525770187
aF0.015231966972351
aF-0.17705096304417
aF-0.13550637662411
aF0.071281462907791
aF0.13966438174248
aF-0.021439490839839
aF-0.087609559297562
aF-0.0039015598595142
aF-0.068370573222637
aF0.029911996796727
aF0.10966945439577
aF0.14936278760433
aF-0.014012552797794
aF0.016435733065009
aF-0.099056132137775
aF0.065459869801998
aF0.060309246182442
aF0.05910562351346
aF-0.037086270749569
aF0.10975793004036
aF0.08517861366272
aF0.028070902451873
aF0.081274129450321
aF-6.1621023633052e-05
aF-0.070018038153648
aF-0.030752077698708
aF-0.0065824394114316
aF0.026796156540513
aF0.075705714523792
aF-0.041666895151138
aF0.035375829786062
aF-0.096336796879768
aF-0.050030503422022
aF-0.00057630788069218
aF0.22508074343204
aF-0.1239695623517
aF0.040971376001835
aF-0.076716721057892
aF0.0012797988019884
aF0.056310914456844
aF-0.20325487852097
aF-0.080296590924263
aF-0.10735616087914
aF-0.048362527042627
aF-0.13273008167744
aF-0.095747418701649
aF0.11309813708067
aF-0.085181891918182
aF-0.030939204618335
aF0.02728858217597
aF0.1405157148838
aF0.07519456744194
aF0.10667799413204
aF0.081999681890011
aF-0.057368893176317
aF-0.028112150728703
aF-0.10731085389853
aF0.12449139356613
aF0.014138409867883
aF-0.14248009026051
aF0.097434982657433
aF0.0045924414880574
aF-0.0063987337052822
aF0.023727249354124
aF0.088651873171329
aF0.10717659443617
aF0.17240586876869
aF0.044844698160887
aF0.046405125409365
aF0.044714022427797
aF0.066007748246193
aF0.049760330468416
aF0.11456809192896
aF-0.044570356607437
aF-0.097807854413986
aF-0.046421363949776
aF0.029592391103506
aF-0.13627421855927
aF-0.12910994887352
aF-0.083353169262409
aF0.015865251421928
aF-0.024350581690669
aF-0.041513286530972
aF0.070348724722862
aF0.043252967298031
aF-0.008643894456327
aF0.032908730208874
aF0.052801836282015
aF-0.056260578334332
aF-0.045594688504934
aF0.049123764038086
aF0.12901665270329
aF-0.089804038405418
aF0.0022068342659622
aF-0.0029105930589139
aF-0.17876215279102
aF0.10062700510025
aF0.042284667491913
aF-0.00061940582236275
aF-0.11596619337797
aF-0.054171193391085
aF-0.013639813289046
aF-0.011175703257322
aF0.10427895188332
aF0.075991407036781
aF-0.015457056462765
aF0.088231578469276
aF0.12049859762192
aF-0.060000509023666
aF0.11360369622707
aF0.049276333302259
asg4
S'/static/dataset/raw/Donald_Trump/image-7.jpg'
p89
sa(dp90
g2
(lp91
F-0.034309629350901
aF0.29753071069717
aF0.12976928055286
aF-0.1052215769887
aF-0.051255147904158
aF0.049145799130201
aF-0.041761122643948
aF0.019341748207808
aF0.1675725877285
aF0.00090994307538494
aF0.10109069943428
aF-0.15201331675053
aF-0.015441172756255
aF-0.02071488648653
aF0.11862730979919
aF-0.086678043007851
aF-0.065612256526947
aF-0.028901942074299
aF-0.1894468665123
aF-0.13491107523441
aF-0.019829822704196
aF0.15492351353168
aF-0.048358120024204
aF-0.047543790191412
aF0.050821382552385
aF-0.16213232278824
aF0.067397654056549
aF0.18386982381344
aF0.11475119739771
aF0.0029237633571029
aF0.076083540916443
aF-0.12565129995346
aF0.036412686109543
aF0.05612014606595
aF0.031471084803343
aF-0.0018568311352283
aF0.09006379544735
aF0.014418662525713
aF-0.0019631201867014
aF0.11459378153086
aF0.032158344984055
aF-0.061287686228752
aF-0.044656675308943
aF0.03143947198987
aF0.011186419986188
aF0.056166302412748
aF-0.074121527373791
aF0.065491013228893
aF-0.053192902356386
aF-0.0029440980870277
aF-0.019266210496426
aF0.24609045684338
aF-0.10444797575474
aF-0.0051536457613111
aF-0.12214361876249
aF-0.0057826940901577
aF-0.097674742341042
aF-0.11384103447199
aF-0.081295348703861
aF-0.075942859053612
aF-0.12242375314236
aF-0.1003580018878
aF-0.03571879118681
aF0.055996719747782
aF-0.13011884689331
aF0.014074318110943
aF0.099552497267723
aF0.071789301931858
aF-0.016420017927885
aF0.11657600849867
aF0.10176073014736
aF-0.056878056377172
aF0.012972939759493
aF-0.064718931913376
aF0.12063520401716
aF-0.024002628400922
aF-0.099917113780975
aF0.0066692917607725
aF-0.04243540763855
aF0.043698642402887
aF0.05343909189105
aF0.054305348545313
aF0.069857276976109
aF0.10291098803282
aF0.062781482934952
aF0.049326501786709
aF-0.014104776084423
aF-0.035903081297874
aF0.0060547771863639
aF0.13016000390053
aF-0.0070500932633877
aF-0.16384063661098
aF-0.025651339441538
aF0.0077873519621789
aF-0.078964322805405
aF-0.15617863833904
aF-0.092843681573868
aF-0.079762555658817
aF0.010949932038784
aF-0.040998369455338
aF-0.0024097473360598
aF0.053387150168419
aF0.018093993887305
aF0.0235346108675
aF-0.036742322146893
aF0.0054947440512478
aF-0.026684107258916
aF0.067549474537373
aF0.085436649620533
aF-0.058351628482342
aF0.084185652434826
aF0.0027457643300295
aF-0.15952429175377
aF0.15749973058701
aF-0.018911883234978
aF-0.056430038064718
aF-0.099733829498291
aF0.016621878370643
aF0.080209627747536
aF0.004589834716171
aF0.097420543432236
aF0.04456190764904
aF-0.048367016017437
aF0.13260528445244
aF0.17231953144073
aF-0.10418222844601
aF0.12185318768024
aF0.011523653753102
asg4
S'/static/dataset/raw/Donald_Trump/image-3.jpg'
p92
sa(dp93
g2
(lp94
F-0.051427278667688
aF0.20961831510067
aF0.14094889163971
aF-0.12535089254379
aF-0.053553488105536
aF-0.029970303177834
aF-0.0022544427774847
aF0.023952649906278
aF0.16712535917759
aF0.0069798859767616
aF0.077508859336376
aF-0.12944863736629
aF0.035730939358473
aF0.070387504994869
aF0.071632117033005
aF-0.12551017105579
aF-0.038282793015242
aF0.073181986808777
aF-0.16052919626236
aF-0.10677647590637
aF0.05951701104641
aF0.13678479194641
aF-0.062852151691914
aF-0.060012921690941
aF-0.01304530352354
aF-0.090266168117523
aF-0.025591924786568
aF0.15145064890385
aF0.0983045399189
aF0.056863605976105
aF0.0275205578655
aF-0.13435609638691
aF0.084365375339985
aF0.0074224220588803
aF0.11873103678226
aF-0.026135571300983
aF0.10573557764292
aF0.13373693823814
aF0.0017896012868732
aF0.03552645817399
aF-0.01832577213645
aF0.059076454490423
aF-0.025234887376428
aF0.064998753368855
aF-0.035553138703108
aF-0.01481706649065
aF-0.077189236879349
aF0.023447358980775
aF0.019676681607962
aF-0.038449719548225
aF-0.0435332916677
aF0.1952418088913
aF-0.090784557163715
aF0.066513918340206
aF-0.039491578936577
aF-0.0013697982067242
aF-0.040179021656513
aF-0.10651123523712
aF-0.077704086899757
aF-0.14925996959209
aF-0.065720617771149
aF-0.13489617407322
aF-0.036286488175392
aF0.11452536284924
aF-0.11430136859417
aF-0.030110124498606
aF0.089774183928967
aF0.066497981548309
aF0.036638997495174
aF0.078563369810581
aF0.1698632389307
aF-0.10432089865208
aF0.062392171472311
aF-0.091347806155682
aF0.047134064137936
aF-0.012713578529656
aF-0.1689365953207
aF-0.021998381242156
aF0.023654837161303
aF-0.040928266942501
aF0.013833107426763
aF0.12594203650951
aF0.084999270737171
aF0.11716548353434
aF0.09708197414875
aF-0.025406571105123
aF0.025748446583748
aF0.022298103198409
aF0.083915881812572
aF0.088205069303513
aF-0.032493583858013
aF-0.16371837258339
aF0.045525774359703
aF-0.076348520815372
aF-0.082492932677269
aF-0.22889639437199
aF-0.093370631337166
aF0.00089732004562393
aF-0.032210979610682
aF-0.02168108895421
aF0.031001815572381
aF0.13237154483795
aF0.075652092695236
aF-0.0086231995373964
aF-0.026970695704222
aF-0.023187950253487
aF-0.00047729790094309
aF-0.0047282534651458
aF0.14291828870773
aF-0.05137911811471
aF0.06000367924571
aF-0.083489753305912
aF-0.21096688508987
aF0.15274603664875
aF-0.019420539960265
aF-0.0073667303659022
aF-0.028936523944139
aF-0.078364610671997
aF0.00042755142203532
aF-0.074731715023518
aF0.077298156917095
aF0.048905592411757
aF-0.062767751514912
aF0.074450708925724
aF0.11922468245029
aF-0.10246845334768
aF0.1377821713686
aF0.074239879846573
asg4
S'/static/dataset/raw/Donald_Trump/image-2.jpg'
p95
sa(dp96
g2
(lp97
F-0.092177785933018
aF0.2603967487812
aF0.2264818251133
aF-0.08676040917635
aF-0.049613881856203
aF0.020573997870088
aF-0.032847192138433
aF0.071445547044277
aF0.017194140702486
aF0.050976689904928
aF0.021012306213379
aF-0.14985220134258
aF-0.032485779374838
aF-0.084490850567818
aF0.089025117456913
aF0.048625219613314
aF-0.1232098788023
aF-0.07379063218832
aF-0.11844881623983
aF-0.1225645840168
aF0.10748609900475
aF0.082858562469482
aF-0.07962241768837
aF-0.05579948425293
aF0.041849978268147
aF0.0093458248302341
aF-0.057992801070213
aF0.015066376887262
aF0.16446310281754
aF-0.017839824780822
aF0.012755565345287
aF-0.062105443328619
aF-0.041602399200201
aF0.0622235275805
aF0.031311500817537
aF0.0069975601509213
aF0.057733435183764
aF0.062964975833893
aF0.050559762865305
aF0.10383618623018
aF0.0022995735052973
aF-0.078202597796917
aF-0.020746489986777
aF-0.029287943616509
aF0.13192971050739
aF0.19645448029041
aF0.065855577588081
aF-0.045093059539795
aF-0.17335149645805
aF-0.11305279284716
aF0.0087382225319743
aF0.22272720932961
aF-0.12924322485924
aF0.023431355133653
aF0.0060691344551742
aF0.0097697591409087
aF0.055024407804012
aF-0.13363564014435
aF-0.027495384216309
aF-0.082950733602047
aF0.044123161584139
aF-0.088961787521839
aF-0.097017049789429
aF0.098919704556465
aF-0.020786494016647
aF-0.070536114275455
aF0.055130671709776
aF0.099911533296108
aF0.13747778534889
aF0.13550935685635
aF0.054658722132444
aF0.030710829421878
aF-0.035444613546133
aF-0.045378964394331
aF0.14068426191807
aF-0.0015246245311573
aF-0.14499524235725
aF0.2019003033638
aF0.0049813189543784
aF0.029198121279478
aF0.0086920512840152
aF0.12889982759953
aF0.075944848358631
aF0.1212555244565
aF-0.0083863344043493
aF0.038713306188583
aF0.07129230350256
aF0.045740105211735
aF-0.019962005317211
aF0.063692919909954
aF-0.022552324458957
aF-0.034765761345625
aF-0.048197973519564
aF0.022384217008948
aF-0.14936937391758
aF-0.053680282086134
aF0.021425005048513
aF-0.015225226059556
aF0.035582676529884
aF-0.02172495983541
aF-0.01805442199111
aF0.0384286865592
aF-0.06231053173542
aF0.0609588958323
aF-0.0084598530083895
aF-0.031481068581343
aF-0.06165474653244
aF0.1188431084156
aF0.090444304049015
aF-0.088860310614109
aF0.0087060080841184
aF0.018676087260246
aF-0.22811561822891
aF0.0046265139244497
aF0.096603095531464
aF0.033524267375469
aF-0.14350125193596
aF-0.1323706060648
aF-0.051615435630083
aF-0.028658647090197
aF0.060341630131006
aF0.15975780785084
aF0.024657359346747
aF0.099636077880859
aF0.078123867511749
aF0.00098335184156895
aF0.099117025732994
aF0.0092218229547143
asg4
S'/static/dataset/raw/Donald_Trump/image-4.jpg'
p98
sa(dp99
g2
(lp100
F-0.029178814962506
aF0.30162218213081
aF0.14415571093559
aF-0.12839850783348
aF-0.041187688708305
aF0.027148304507136
aF-0.015609497204423
aF0.032715022563934
aF0.10858377069235
aF0.039008792489767
aF0.096127465367317
aF-0.16143818199635
aF0.019804213196039
aF-0.0039264019578695
aF0.1388652920723
aF-0.062511079013348
aF-0.06193570792675
aF-0.025483814999461
aF-0.19294059276581
aF-0.12005788087845
aF-0.012278269045055
aF0.14849473536015
aF-0.067996643483639
aF-0.064205273985863
aF0.036028176546097
aF-0.12793079018593
aF0.044756699353456
aF0.18820077180862
aF0.13619023561478
aF0.016403548419476
aF0.025692757219076
aF-0.10092025250196
aF0.032975744456053
aF0.066250592470169
aF0.042882967740297
aF-0.015859842300415
aF0.10364666581154
aF0.031698156148195
aF0.015573785640299
aF0.070921547710896
aF0.022101880982518
aF-0.079785130918026
aF0.0010848152451217
aF0.037076488137245
aF0.011466802097857
aF0.10181525349617
aF-0.051638603210449
aF0.076636433601379
aF-0.10769535601139
aF-0.029265662655234
aF-0.015201907604933
aF0.22047658264637
aF-0.1264019459486
aF0.0045020100660622
aF-0.086866997182369
aF-0.0050204307772219
aF-0.11550326645374
aF-0.11257262527943
aF-0.07248280197382
aF-0.078959338366985
aF-0.10201498866081
aF-0.10963152348995
aF-0.046818871051073
aF0.081657201051712
aF-0.11850500106812
aF0.049483928829432
aF0.057554498314857
aF0.088425554335117
aF-0.011181138455868
aF0.077202528715134
aF0.097713783383369
aF-0.069269701838493
aF0.013476887717843
aF-0.084280885756016
aF0.12765881419182
aF-0.011189802549779
aF-0.093082323670387
aF0.021722061559558
aF-0.0028002033941448
aF0.024839578196406
aF0.07664830237627
aF0.038011688739061
aF0.056175168603659
aF0.098389610648155
aF0.047417532652617
aF0.038682267069817
aF-0.010581062175333
aF-0.026529433205724
aF0.0322968326509
aF0.17034836113453
aF0.0019386351341382
aF-0.15954834222794
aF-0.046031482517719
aF0.01016687322408
aF-0.11624721437693
aF-0.13600252568722
aF-0.07880337536335
aF-0.060479801148176
aF0.023443611338735
aF-0.061055716127157
aF0.01099366042763
aF0.073079623281956
aF0.030254032462835
aF0.016579365357757
aF-0.058336205780506
aF0.010247657075524
aF-0.047923512756824
aF0.096581101417542
aF0.10885397344828
aF-0.081992663443089
aF0.094541065394878
aF0.0021284576505423
aF-0.1846607029438
aF0.14452512562275
aF0.00014147176989354
aF-0.057670727372169
aF-0.10754487663507
aF0.0057128877379
aF0.045826349407434
aF-0.0074981269426644
aF0.097851179540157
aF0.03646682575345
aF-0.030394557863474
aF0.143753439188
aF0.16571336984634
aF-0.095322497189045
aF0.12986825406551
aF-0.014294597320259
asg4
S'/static/dataset/raw/Donald_Trump/image-8.jpg'
p101
sa(dp102
g2
(lp103
F0.018971128389239
aF0.10345373302698
aF0.0546999797225
aF-0.10226445645094
aF0.017197247594595
aF0.096310622990131
aF-0.037408411502838
aF0.11006475239992
aF0.036858208477497
aF-0.0119355218485
aF0.034387614578009
aF-0.070981778204441
aF0.068191707134247
aF0.0092406868934631
aF0.06178068742156
aF0.02900885976851
aF-0.017531273886561
aF0.012825964950025
aF-0.1401924341917
aF-0.12972342967987
aF0.18796926736832
aF0.039180889725685
aF0.070143930613995
aF-0.12953136861324
aF0.067861899733543
aF-0.041295189410448
aF0.00081154797226191
aF-0.055430572479963
aF0.0042908769100904
aF0.016541756689548
aF0.076449908316135
aF0.043478544801474
aF0.074871771037579
aF0.092902101576328
aF-0.0013257506070659
aF-0.051000855863094
aF0.011314793489873
aF0.11657535284758
aF0.052726618945599
aF0.0081662386655807
aF0.0071814195252955
aF-0.052399083971977
aF-0.012773459777236
aF0.047263644635677
aF-0.032670386135578
aF0.018928652629256
aF-0.032005313783884
aF-0.079123742878437
aF-0.10602170974016
aF-0.066645659506321
aF0.066595114767551
aF0.14477552473545
aF-0.059457007795572
aF0.049937520176172
aF-0.056730765849352
aF0.0043899295851588
aF0.10830245167017
aF-0.097335323691368
aF-0.021976275369525
aF-0.12642833590508
aF-0.037670962512493
aF-0.15232862532139
aF-0.068670660257339
aF0.0079546552151442
aF0.00034375235554762
aF-0.069664463400841
aF-0.033233288675547
aF0.22193256020546
aF0.061254523694515
aF0.16035963594913
aF0.073780871927738
aF-0.016487276181579
aF-0.10806621611118
aF-0.20635066926479
aF0.01911742053926
aF0.040537036955357
aF-0.11175288259983
aF-0.013129968196154
aF-0.082119323313236
aF0.10343813896179
aF-0.11047212779522
aF0.011244714260101
aF0.13519701361656
aF0.10159782320261
aF-0.044408638030291
aF0.019264718517661
aF0.11853015422821
aF0.0063761314377189
aF0.0094030285254121
aF0.020655814558268
aF-0.084584206342697
aF-0.14356781542301
aF-0.12205842137337
aF0.0096817314624786
aF-0.10411693900824
aF-0.041901562362909
aF-0.038328025490046
aF0.081998527050018
aF-0.061533972620964
aF-0.0040942020714283
aF0.046777058392763
aF0.059969667345285
aF0.0025708538014442
aF0.15184986591339
aF0.036325100809336
aF-0.093702435493469
aF-0.12320979684591
aF0.10936366766691
aF0.079891197383404
aF-0.19142161309719
aF-0.082235917448997
aF-0.0013872784329578
aF-0.23313818871975
aF0.032355550676584
aF0.15660111606121
aF0.03860142827034
aF-0.10938774049282
aF-0.12372862547636
aF0.078150868415833
aF0.12182343006134
aF0.12636482715607
aF0.079647339880466
aF-0.0015538488514721
aF0.061207324266434
aF0.17912578582764
aF-0.10757349431515
aF0.1678763628006
aF0.11052851378918
asg4
S'/static/dataset/raw/Donald_Trump/image-6.jpg'
p104
sa(dp105
g2
(lp106
F-0.061212737113237
aF0.21013785898685
aF0.11732852458954
aF-0.10418893396854
aF0.0059157302603126
aF-0.074093498289585
aF0.064782440662384
aF-0.0047846874222159
aF0.076484963297844
aF-0.036428324878216
aF-0.02820854447782
aF-0.11280820518732
aF0.0044632283970714
aF0.047582242637873
aF0.065785065293312
aF-0.0641248524189
aF-0.042147517204285
aF-0.10224363952875
aF-0.090718530118465
aF-0.12177750468254
aF0.045383647084236
aF0.052357841283083
aF-0.0669931396842
aF-0.16684123873711
aF0.050938159227371
aF-0.023823216557503
aF-0.12088251113892
aF0.063487067818642
aF0.13652674853802
aF0.046889159828424
aF0.060180470347404
aF0.008104887790978
aF0.015973497182131
aF-0.031777709722519
aF0.037099100649357
aF-0.05365801975131
aF0.072848044335842
aF0.1579612493515
aF0.096481263637543
aF0.050872471183538
aF0.049421343952417
aF0.034715868532658
aF-0.028708260506392
aF-0.02511896006763
aF0.043511413037777
aF0.21624985337257
aF-0.040966864675283
aF-0.060999743640423
aF-0.059466242790222
aF-0.19598120450974
aF-0.14070874452591
aF0.22959920763969
aF-0.0037803002633154
aF-0.0041793021373451
aF-0.073121465742588
aF-0.016688307747245
aF0.01223951857537
aF-0.031303055584431
aF-0.11816437542439
aF-0.027487175539136
aF0.0078695267438889
aF-0.070036359131336
aF-0.069150470197201
aF0.095674447715282
aF-0.049859590828419
aF0.0066149602644145
aF0.07413312792778
aF0.13524815440178
aF0.090897887945175
aF-0.027525346726179
aF0.14369748532772
aF-0.02622009254992
aF-0.024353861808777
aF-0.044001050293446
aF0.11062783002853
aF0.08808159828186
aF-0.15752433240414
aF-0.029496002942324
aF0.0075556398369372
aF0.058295018970966
aF-0.077647589147091
aF0.090412668883801
aF0.07451369613409
aF0.15857701003551
aF0.053371179848909
aF-0.015315569937229
aF0.069596201181412
aF0.00047499616630375
aF-0.055275063961744
aF-0.059047471731901
aF-0.022868873551488
aF-0.068580403923988
aF0.058334980159998
aF-0.02400634996593
aF-0.085381090641022
aF-0.17477503418922
aF0.029902691021562
aF-0.030713364481926
aF0.01504601445049
aF-0.016276361420751
aF-0.059778895229101
aF0.039814047515392
aF0.018938478082418
aF0.11188944429159
aF-0.1107535213232
aF-0.028045885264874
aF-0.013343630358577
aF0.18202628195286
aF0.1407433450222
aF-0.07044605910778
aF0.068767569959164
aF-0.1196611225605
aF-0.28857758641243
aF0.066187888383865
aF0.021623177453876
aF0.040462523698807
aF-0.17218789458275
aF-0.085466377437115
aF0.01244236715138
aF-0.0078099616803229
aF0.021246774122119
aF0.14605833590031
aF-0.11913548409939
aF0.093462146818638
aF0.071585930883884
aF-0.059667911380529
aF0.0024356551002711
aF0.014915008097887
asg4
S'/static/dataset/raw/Donald_Trump/image-1.jpg'
p107
sa(dp108
g2
(lp109
F0.018635366111994
aF0.10853718221188
aF0.0069165639579296
aF0.069836787879467
aF0.071696311235428
aF0.15327888727188
aF0.0092901606112719
aF0.0078679565340281
aF-0.0048164338804781
aF-0.018848668783903
aF0.078415967524052
aF0.098984532058239
aF-0.038765657693148
aF-0.26053074002266
aF-0.093965344130993
aF0.046153042465448
aF-0.11989008635283
aF0.068631537258625
aF-0.041248302906752
aF-0.012890571728349
aF0.23780432343483
aF-0.018324373289943
aF-0.046241074800491
aF0.0091436142101884
aF0.13556408882141
aF-0.073350422084332
aF-0.011019697412848
aF-0.14418169856071
aF0.050330832600594
aF0.14114049077034
aF0.037602964788675
aF-0.092127330601215
aF-0.016429835930467
aF0.030288176611066
aF0.085587821900845
aF-0.073277719318867
aF-0.062493357807398
aF-0.13645534217358
aF0.075741715729237
aF-0.069334365427494
aF0.035446520894766
aF-0.097959257662296
aF0.088267408311367
aF0.16711570322514
aF-0.033645890653133
aF-0.099597729742527
aF0.12203088402748
aF-0.093408435583115
aF-0.12471521645784
aF-0.033556424081326
aF0.10088019818068
aF0.031690552830696
aF-0.092877201735973
aF-0.026727775111794
aF0.034540176391602
aF0.040789376944304
aF-0.067517518997192
aF-0.024172743782401
aF-0.11101474612951
aF-0.0442347638309
aF0.0055955997668207
aF-0.16128380596638
aF0.13359571993351
aF-0.047776039689779
aF0.12954440712929
aF-0.18765453994274
aF-0.068789593875408
aF-0.068970486521721
aF-0.062613964080811
aF0.084501974284649
aF0.019761649891734
aF0.10379787534475
aF-0.077382370829582
aF-0.16508795320988
aF-0.075105153024197
aF0.030912702903152
aF-0.011309754103422
aF0.13323718309402
aF-0.067443870007992
aF0.15332548320293
aF-0.085958234965801
aF0.012737641111016
aF0.11312668025494
aF0.14878781139851
aF-0.056907311081886
aF0.038083542138338
aF0.065441511571407
aF0.01539449673146
aF0.0073686689138412
aF0.021773410961032
aF-0.060229692608118
aF-0.12647679448128
aF-0.21303330361843
aF0.087428584694862
aF-0.092643544077873
aF-0.079576335847378
aF-0.033880531787872
aF0.013566712848842
aF-0.054041039198637
aF0.0094399638473988
aF0.0094828912988305
aF0.039671622216702
aF-0.052687361836433
aF0.021065391600132
aF0.037625011056662
aF0.033191747963428
aF0.073957234621048
aF0.15720453858376
aF-0.025426486507058
aF-0.02909311465919
aF-0.072378538548946
aF-0.078929647803307
aF-0.12580095231533
aF0.016454299911857
aF0.11919181793928
aF0.02710011228919
aF-0.078112699091434
aF0.020540038123727
aF0.021657491102815
aF0.11872252076864
aF0.013426756486297
aF0.037529412657022
aF-0.018232451751828
aF-0.012954675592482
aF0.13240018486977
aF0.062786966562271
aF0.15892218053341
aF0.038265977054834
asg4
S'/static/dataset/raw/Jianlong_Zhou/d.jpg'
p110
sa(dp111
g2
(lp112
F0.066197782754898
aF0.23671618103981
aF-0.021862359717488
aF0.070305891335011
aF0.013898827135563
aF0.15952605009079
aF0.013317998498678
aF0.022016724571586
aF-0.010739401914179
aF0.073482289910316
aF0.18492341041565
aF0.031717047095299
aF-0.0091429082676768
aF-0.20768301188946
aF-0.0035972825717181
aF0.0017205089097843
aF-0.0082568293437362
aF0.11543096601963
aF-0.071137711405754
aF0.0046601356007159
aF0.10038489848375
aF-0.020268015563488
aF-0.006079813465476
aF0.081483975052834
aF0.10925357788801
aF-0.16493031382561
aF0.055101718753576
aF-0.031136557459831
aF0.053816873580217
aF0.098733864724636
aF-0.0062123988755047
aF-0.10391347110271
aF0.012825856916606
aF0.11749532818794
aF0.0067596738226712
aF-0.065224960446358
aF0.012006346136332
aF-0.094001367688179
aF0.0032534091733396
aF0.0043637030757964
aF-0.004820469301194
aF-0.11826425790787
aF0.078413963317871
aF0.12237814068794
aF-0.084597863256931
aF-0.14474262297153
aF0.10880069434643
aF-0.017466008663177
aF-0.144440934062
aF0.09783411026001
aF0.17408040165901
aF0.047726221382618
aF-0.20589856803417
aF-0.015319068916142
aF-0.01591644063592
aF0.055902950465679
aF-0.13375364243984
aF-0.032664749771357
aF-0.04017898440361
aF-0.025911651551723
aF-0.08905141055584
aF-0.16799496114254
aF0.12563383579254
aF-0.16733060777187
aF0.085323542356491
aF-0.092030636966228
aF-0.039445877075195
aF-0.10732609778643
aF-0.16871626675129
aF0.139534547925
aF-0.017780140042305
aF0.075635850429535
aF-0.04563008248806
aF-0.034664340317249
aF-0.025709643959999
aF-0.074457339942455
aF0.071040958166122
aF0.13227000832558
aF-0.063862599432468
aF0.035882126539946
aF-0.083724215626717
aF-0.033157613128424
aF0.049137409776449
aF0.037909090518951
aF-0.023194599896669
aF0.063272908329964
aF-0.023638155311346
aF-0.084697350859642
aF0.091136030852795
aF0.11346705257893
aF-0.042011175304651
aF-0.19848769903183
aF-0.16525784134865
aF0.019042758271098
aF0.01191989518702
aF-0.10042748600245
aF-0.070000067353249
aF-0.012191441841424
aF-0.0419991761446
aF-0.0010924537200481
aF-0.044994462281466
aF0.064691424369812
aF-0.0020786901004612
aF0.050523653626442
aF0.021129282191396
aF0.07248280197382
aF0.052578702569008
aF0.10059500485659
aF-0.0077004302293062
aF-0.068019025027752
aF-0.037563145160675
aF0.02993381023407
aF-0.00043764556176029
aF0.082328826189041
aF0.074050679802895
aF-0.092660218477249
aF0.021747862920165
aF0.012301623821259
aF0.10303585976362
aF0.11842201650143
aF0.038924068212509
aF-0.0030135766137391
aF-0.015230281278491
aF0.11612606793642
aF0.16958360373974
aF-0.023206202313304
aF0.17932358384132
aF-0.011905516497791
asg4
S'/static/dataset/raw/Jianlong_Zhou/c.jpg'
p113
sa(dp114
g2
(lp115
F-0.031613375991583
aF0.21727831661701
aF0.05686504766345
aF0.0055250832810998
aF0.096838094294071
aF0.18293732404709
aF0.016491509974003
aF-0.012765670195222
aF0.038667317479849
aF-0.01274898275733
aF0.049241907894611
aF0.040169727057219
aF-0.09603513032198
aF-0.21246148645878
aF-0.00070566084468737
aF0.0050901998765767
aF-0.11729957908392
aF0.053240191191435
aF-0.024194264784455
aF-0.12385417521
aF0.15583200752735
aF0.061578366905451
aF-0.046581022441387
aF-0.057063445448875
aF0.17042227089405
aF-0.11183197051287
aF-0.0067682834342122
aF-0.010878563858569
aF0.12090212106705
aF0.093725621700287
aF0.10036215186119
aF-0.1204037219286
aF-0.020589230582118
aF0.024747215211391
aF0.11508598923683
aF-0.069483920931816
aF0.018309039995074
aF-0.16799609363079
aF0.12266852706671
aF-0.013653540052474
aF0.11192201822996
aF-0.061522897332907
aF0.14373867213726
aF0.10969313979149
aF-0.064431063830853
aF-0.11451943218708
aF0.088066399097443
aF-0.065310515463352
aF-0.073745772242546
aF-0.023362288251519
aF0.045282911509275
aF0.092812620103359
aF-0.10882601886988
aF-0.0084694204851985
aF-0.0078842118382454
aF0.055776610970497
aF-0.059611238539219
aF-0.0064013670198619
aF-0.17608606815338
aF-0.036157932132483
aF-0.073336459696293
aF-0.12600247561932
aF0.13086833059788
aF-0.091574028134346
aF0.12229396402836
aF-0.074509508907795
aF-0.036244422197342
aF-0.10007551312447
aF-0.096322230994701
aF0.15120951831341
aF0.039213940501213
aF0.14421497285366
aF-0.053293585777283
aF-0.064019441604614
aF-0.0036473970394582
aF0.007923761382699
aF-0.014878328889608
aF0.085640177130699
aF-0.070609956979752
aF0.038246657699347
aF-0.051666934043169
aF0.086825914680958
aF0.18063779175282
aF0.21582616865635
aF-0.00081499421503395
aF-0.00018916017143056
aF0.037142183631659
aF0.04893046990037
aF0.016994679346681
aF0.050807889550924
aF-0.004133265465498
aF-0.13297843933105
aF-0.16860266029835
aF0.041254054754972
aF-0.0061373882927001
aF-0.14067643880844
aF-0.048490315675735
aF0.060380794107914
aF-0.084033451974392
aF0.047326270490885
aF-0.04573106020689
aF0.017574680969119
aF-0.018611870706081
aF0.017018156126142
aF0.020540650933981
aF0.078002028167248
aF0.09417699277401
aF0.11040893942118
aF0.0092788487672806
aF-0.0096037164330482
aF-0.01916472800076
aF-0.091711223125458
aF-0.10870332270861
aF0.098053023219109
aF0.10585803538561
aF-0.041484043002129
aF-0.0035050213336945
aF0.059724476188421
aF0.06928239017725
aF0.10960619151592
aF0.097669377923012
aF0.030585020780563
aF-0.0055496450513601
aF-0.020128466188908
aF0.10208689421415
aF0.028523167595267
aF0.16185291111469
aF0.069623574614525
asg4
S'/static/dataset/raw/Jianlong_Zhou/b.jpg'
p116
sa(dp117
g2
(lp118
F0.020088985562325
aF0.24010886251926
aF-0.019480185583234
aF0.071121513843536
aF0.019282946363091
aF0.17329913377762
aF-0.024788610637188
aF-0.020820546895266
aF-0.011811875738204
aF0.10155004262924
aF0.1634673178196
aF-0.016705963760614
aF-0.033669002354145
aF-0.19188380241394
aF0.026025306433439
aF0.0010151938768104
aF-0.045573048293591
aF0.17400604486465
aF-0.01055543590337
aF-0.057462826371193
aF0.11750783026218
aF-0.034969609230757
aF0.0057559963315725
aF0.046667993068695
aF0.16226816177368
aF-0.18149083852768
aF0.04278814047575
aF-0.055601850152016
aF0.046850945800543
aF0.10384519398212
aF0.037578977644444
aF-0.12698000669479
aF0.0025440577883273
aF0.068068332970142
aF0.083229005336761
aF-0.031531970947981
aF-0.0081232450902462
aF-0.17366798222065
aF0.03679720684886
aF-0.034037701785564
aF-0.0070389406755567
aF-0.13095007836819
aF0.089448697865009
aF0.15704774856567
aF-0.08753814548254
aF-0.12637074291706
aF0.11957008391619
aF0.0064060371369123
aF-0.14506153762341
aF0.032879609614611
aF0.1582362651825
aF0.034968435764313
aF-0.16166959702969
aF-0.044443547725677
aF-0.049578182399273
aF0.083559833467007
aF-0.10166771709919
aF-0.055475898087025
aF-0.024494647979736
aF-0.037604216486216
aF-0.057497702538967
aF-0.13778568804264
aF0.11520659923553
aF-0.1378538608551
aF0.11883775144815
aF-0.081756688654423
aF-0.050097979605198
aF-0.10977561026812
aF-0.12741246819496
aF0.18081669509411
aF-0.014591166749597
aF0.1033281981945
aF-0.049463856965303
aF-0.11577411741018
aF-0.060672432184219
aF-0.084839642047882
aF0.028672594577074
aF0.13832715153694
aF-0.072153225541115
aF0.014153754338622
aF-0.083215370774269
aF0.00015981649630703
aF0.021540621295571
aF0.058025550097227
aF-0.054789829999208
aF0.074996583163738
aF-0.046089205890894
aF-0.085633754730225
aF0.069430209696293
aF0.10810078680515
aF-0.037128407508135
aF-0.1455455571413
aF-0.15486679971218
aF-0.02070507965982
aF-0.0059524192474782
aF-0.10644578933716
aF-0.10273682326078
aF0.034559197723866
aF-0.039837867021561
aF0.0064374459907413
aF-0.012328685261309
aF0.055279150605202
aF0.01655107550323
aF-0.024790331721306
aF0.072968117892742
aF0.074109777808189
aF0.075155146420002
aF0.080812022089958
aF-0.011293392628431
aF-0.0091479904949665
aF-0.056914065033197
aF-0.021614907309413
aF0.010806358419359
aF0.042468447238207
aF0.071413561701775
aF-0.084986500442028
aF0.023020816966891
aF0.014179846271873
aF0.10452485084534
aF0.084743052721024
aF0.062796644866467
aF-0.039025198668242
aF-0.029349299147725
aF0.087157011032104
aF0.14585921168327
aF-0.012032740749419
aF0.16685029864311
aF0.023904226720333
asg4
S'/static/dataset/raw/Jianlong_Zhou/a.jpg'
p119
sa.